
./bin/riscv_logo.elf:     format de fichier elf32-littleriscv


Déassemblage de la section .text :

00000000 <start>:
   0:	004001b7          	lui	gp,0x400
   4:	00020137          	lui	sp,0x20
   8:	1c4000ef          	jal	ra,1cc <main>
   c:	00100073          	ebreak

00000010 <set_12b_from_16b>:
  10:	000016b7          	lui	a3,0x1
  14:	00355793          	srli	a5,a0,0x3
  18:	40455713          	srai	a4,a0,0x4
  1c:	f0068693          	addi	a3,a3,-256 # f00 <__modsi3+0x9b0>
  20:	00d77733          	and	a4,a4,a3
  24:	0f07f793          	andi	a5,a5,240
  28:	40155513          	srai	a0,a0,0x1
  2c:	00e7e7b3          	or	a5,a5,a4
  30:	00f57513          	andi	a0,a0,15
  34:	00a7e533          	or	a0,a5,a0
  38:	00008067          	ret

0000003c <set_pixel>:
  3c:	00251513          	slli	a0,a0,0x2
  40:	0b0007b7          	lui	a5,0xb000
  44:	00a787b3          	add	a5,a5,a0
  48:	00b7a023          	sw	a1,0(a5) # b000000 <IO_BASE+0xac00000>
  4c:	00008067          	ret

00000050 <clear_screen>:
  50:	0b0007b7          	lui	a5,0xb000
  54:	0b006737          	lui	a4,0xb006
  58:	0007a023          	sw	zero,0(a5) # b000000 <IO_BASE+0xac00000>
  5c:	00478793          	addi	a5,a5,4
  60:	fee79ce3          	bne	a5,a4,58 <clear_screen+0x8>
  64:	00008067          	ret

00000068 <sleep_cycles>:
  68:	c0002773          	rdcycle	a4
  6c:	c00027f3          	rdcycle	a5
  70:	40e787b3          	sub	a5,a5,a4
  74:	fea7cce3          	blt	a5,a0,6c <sleep_cycles+0x4>
  78:	00008067          	ret

0000007c <draw_hline_left>:
  7c:	00151793          	slli	a5,a0,0x1
  80:	00a787b3          	add	a5,a5,a0
  84:	05f00513          	li	a0,95
  88:	40b50533          	sub	a0,a0,a1
  8c:	00579793          	slli	a5,a5,0x5
  90:	02b54e63          	blt	a0,a1,cc <draw_hline_left+0x50>
  94:	00a787b3          	add	a5,a5,a0
  98:	00279793          	slli	a5,a5,0x2
  9c:	0b000837          	lui	a6,0xb000
  a0:	0007a6b7          	lui	a3,0x7a
  a4:	00f80833          	add	a6,a6,a5
  a8:	11f68693          	addi	a3,a3,287 # 7a11f <riscv_96x64_map+0x6a0c7>
  ac:	00c82023          	sw	a2,0(a6) # b000000 <IO_BASE+0xac00000>
  b0:	c0002773          	rdcycle	a4
  b4:	c00027f3          	rdcycle	a5
  b8:	40e787b3          	sub	a5,a5,a4
  bc:	fef6dce3          	bge	a3,a5,b4 <draw_hline_left+0x38>
  c0:	fff50513          	addi	a0,a0,-1
  c4:	ffc80813          	addi	a6,a6,-4
  c8:	feb552e3          	bge	a0,a1,ac <draw_hline_left+0x30>
  cc:	00008067          	ret

000000d0 <draw_hline_right>:
  d0:	00151793          	slli	a5,a0,0x1
  d4:	06000813          	li	a6,96
  d8:	00a787b3          	add	a5,a5,a0
  dc:	40b80833          	sub	a6,a6,a1
  e0:	00579793          	slli	a5,a5,0x5
  e4:	0305de63          	bge	a1,a6,120 <draw_hline_right+0x50>
  e8:	00b787b3          	add	a5,a5,a1
  ec:	00279793          	slli	a5,a5,0x2
  f0:	0b000537          	lui	a0,0xb000
  f4:	0007a6b7          	lui	a3,0x7a
  f8:	00f50533          	add	a0,a0,a5
  fc:	11f68693          	addi	a3,a3,287 # 7a11f <riscv_96x64_map+0x6a0c7>
 100:	00c52023          	sw	a2,0(a0) # b000000 <IO_BASE+0xac00000>
 104:	c0002773          	rdcycle	a4
 108:	c00027f3          	rdcycle	a5
 10c:	40e787b3          	sub	a5,a5,a4
 110:	fef6dce3          	bge	a3,a5,108 <draw_hline_right+0x38>
 114:	00158593          	addi	a1,a1,1
 118:	00450513          	addi	a0,a0,4
 11c:	ff0592e3          	bne	a1,a6,100 <draw_hline_right+0x30>
 120:	00008067          	ret

00000124 <draw_vline_down>:
 124:	00159793          	slli	a5,a1,0x1
 128:	00b787b3          	add	a5,a5,a1
 12c:	00579793          	slli	a5,a5,0x5
 130:	00a787b3          	add	a5,a5,a0
 134:	04000813          	li	a6,64
 138:	00279793          	slli	a5,a5,0x2
 13c:	0b000537          	lui	a0,0xb000
 140:	0007a6b7          	lui	a3,0x7a
 144:	40b80833          	sub	a6,a6,a1
 148:	00f50533          	add	a0,a0,a5
 14c:	11f68693          	addi	a3,a3,287 # 7a11f <riscv_96x64_map+0x6a0c7>
 150:	0305d263          	bge	a1,a6,174 <draw_vline_down+0x50>
 154:	00c52023          	sw	a2,0(a0) # b000000 <IO_BASE+0xac00000>
 158:	c0002773          	rdcycle	a4
 15c:	c00027f3          	rdcycle	a5
 160:	40e787b3          	sub	a5,a5,a4
 164:	fef6dce3          	bge	a3,a5,15c <draw_vline_down+0x38>
 168:	00158593          	addi	a1,a1,1
 16c:	18050513          	addi	a0,a0,384
 170:	ff0592e3          	bne	a1,a6,154 <draw_vline_down+0x30>
 174:	00008067          	ret

00000178 <draw_vline_up>:
 178:	03f00813          	li	a6,63
 17c:	40b80833          	sub	a6,a6,a1
 180:	00181793          	slli	a5,a6,0x1
 184:	010787b3          	add	a5,a5,a6
 188:	00579793          	slli	a5,a5,0x5
 18c:	00a787b3          	add	a5,a5,a0
 190:	00279793          	slli	a5,a5,0x2
 194:	0b000537          	lui	a0,0xb000
 198:	0007a6b7          	lui	a3,0x7a
 19c:	00f50533          	add	a0,a0,a5
 1a0:	11f68693          	addi	a3,a3,287 # 7a11f <riscv_96x64_map+0x6a0c7>
 1a4:	02b84263          	blt	a6,a1,1c8 <draw_vline_up+0x50>
 1a8:	00c52023          	sw	a2,0(a0) # b000000 <IO_BASE+0xac00000>
 1ac:	c0002773          	rdcycle	a4
 1b0:	c00027f3          	rdcycle	a5
 1b4:	40e787b3          	sub	a5,a5,a4
 1b8:	fef6dce3          	bge	a3,a5,1b0 <draw_vline_up+0x38>
 1bc:	fff80813          	addi	a6,a6,-1
 1c0:	e8050513          	addi	a0,a0,-384
 1c4:	feb852e3          	bge	a6,a1,1a8 <draw_vline_up+0x30>
 1c8:	00008067          	ret

000001cc <main>:
 1cc:	ff010113          	addi	sp,sp,-16 # 1fff0 <riscv_96x64_map+0xff98>
 1d0:	00812423          	sw	s0,8(sp)
 1d4:	00010437          	lui	s0,0x10
 1d8:	00040513          	mv	a0,s0
 1dc:	00112623          	sw	ra,12(sp)
 1e0:	190000ef          	jal	ra,370 <print_string>
 1e4:	00010537          	lui	a0,0x10
 1e8:	00850513          	addi	a0,a0,8 # 10008 <__modsi3+0xfab8>
 1ec:	184000ef          	jal	ra,370 <print_string>
 1f0:	00040513          	mv	a0,s0
 1f4:	17c000ef          	jal	ra,370 <print_string>
 1f8:	00010537          	lui	a0,0x10
 1fc:	02850513          	addi	a0,a0,40 # 10028 <__modsi3+0xfad8>
 200:	170000ef          	jal	ra,370 <print_string>
 204:	00010537          	lui	a0,0x10
 208:	03850513          	addi	a0,a0,56 # 10038 <__modsi3+0xfae8>
 20c:	164000ef          	jal	ra,370 <print_string>
 210:	00010537          	lui	a0,0x10
 214:	04050513          	addi	a0,a0,64 # 10040 <__modsi3+0xfaf0>
 218:	158000ef          	jal	ra,370 <print_string>
 21c:	00010537          	lui	a0,0x10
 220:	03c50513          	addi	a0,a0,60 # 1003c <__modsi3+0xfaec>
 224:	14c000ef          	jal	ra,370 <print_string>
 228:	00010537          	lui	a0,0x10
 22c:	04c50513          	addi	a0,a0,76 # 1004c <__modsi3+0xfafc>
 230:	140000ef          	jal	ra,370 <print_string>
 234:	00010537          	lui	a0,0x10
 238:	00450513          	addi	a0,a0,4 # 10004 <__modsi3+0xfab4>
 23c:	134000ef          	jal	ra,370 <print_string>
 240:	00040513          	mv	a0,s0
 244:	12c000ef          	jal	ra,370 <print_string>
 248:	0b0007b7          	lui	a5,0xb000
 24c:	0b006737          	lui	a4,0xb006
 250:	0007a023          	sw	zero,0(a5) # b000000 <IO_BASE+0xac00000>
 254:	00478793          	addi	a5,a5,4
 258:	fee79ce3          	bne	a5,a4,250 <main+0x84>
 25c:	000107b7          	lui	a5,0x10
 260:	05878793          	addi	a5,a5,88 # 10058 <riscv_96x64_map>
 264:	00003637          	lui	a2,0x3
 268:	00c78633          	add	a2,a5,a2
 26c:	0b000737          	lui	a4,0xb000
 270:	0007d683          	lhu	a3,0(a5)
 274:	00278793          	addi	a5,a5,2
 278:	00470713          	addi	a4,a4,4 # b000004 <IO_BASE+0xac00004>
 27c:	fed72e23          	sw	a3,-4(a4)
 280:	fec798e3          	bne	a5,a2,270 <main+0xa4>
 284:	0b000537          	lui	a0,0xb000
 288:	0b0065b7          	lui	a1,0xb006
 28c:	16006e37          	lui	t3,0x16006
 290:	0007a7b7          	lui	a5,0x7a
 294:	18050893          	addi	a7,a0,384 # b000180 <IO_BASE+0xac00180>
 298:	17c58813          	addi	a6,a1,380 # b00617c <IO_BASE+0xac0617c>
 29c:	ff8e0f13          	addi	t5,t3,-8 # 16005ff8 <IO_BASE+0x15c05ff8>
 2a0:	e7c58593          	addi	a1,a1,-388
 2a4:	e8050513          	addi	a0,a0,-384
 2a8:	00000313          	li	t1,0
 2ac:	11f78793          	addi	a5,a5,287 # 7a11f <riscv_96x64_map+0x6a0c7>
 2b0:	e7ce0e13          	addi	t3,t3,-388
 2b4:	02000e93          	li	t4,32
 2b8:	18050613          	addi	a2,a0,384
 2bc:	00062023          	sw	zero,0(a2) # 3000 <__modsi3+0x2ab0>
 2c0:	c00026f3          	rdcycle	a3
 2c4:	c0002773          	rdcycle	a4
 2c8:	40d70733          	sub	a4,a4,a3
 2cc:	fee7dce3          	bge	a5,a4,2c4 <main+0xf8>
 2d0:	00460613          	addi	a2,a2,4
 2d4:	ff1614e3          	bne	a2,a7,2bc <main+0xf0>
 2d8:	40bf0633          	sub	a2,t5,a1
 2dc:	00062023          	sw	zero,0(a2)
 2e0:	c00026f3          	rdcycle	a3
 2e4:	c0002773          	rdcycle	a4
 2e8:	40d70733          	sub	a4,a4,a3
 2ec:	fee7dce3          	bge	a5,a4,2e4 <main+0x118>
 2f0:	18060613          	addi	a2,a2,384
 2f4:	ff0614e3          	bne	a2,a6,2dc <main+0x110>
 2f8:	40ae0633          	sub	a2,t3,a0
 2fc:	00062023          	sw	zero,0(a2)
 300:	c00026f3          	rdcycle	a3
 304:	c0002773          	rdcycle	a4
 308:	40d70733          	sub	a4,a4,a3
 30c:	fee7dce3          	bge	a5,a4,304 <main+0x138>
 310:	ffc60613          	addi	a2,a2,-4
 314:	feb614e3          	bne	a2,a1,2fc <main+0x130>
 318:	00458613          	addi	a2,a1,4
 31c:	00062023          	sw	zero,0(a2)
 320:	c00026f3          	rdcycle	a3
 324:	c0002773          	rdcycle	a4
 328:	40d70733          	sub	a4,a4,a3
 32c:	fee7dce3          	bge	a5,a4,324 <main+0x158>
 330:	e8060613          	addi	a2,a2,-384
 334:	fea614e3          	bne	a2,a0,31c <main+0x150>
 338:	00130313          	addi	t1,t1,1
 33c:	18460513          	addi	a0,a2,388
 340:	e8458593          	addi	a1,a1,-380
 344:	e7c80813          	addi	a6,a6,-388
 348:	17c88893          	addi	a7,a7,380
 34c:	f7d316e3          	bne	t1,t4,2b8 <main+0xec>
 350:	00c12083          	lw	ra,12(sp)
 354:	00812403          	lw	s0,8(sp)
 358:	00000513          	li	a0,0
 35c:	01010113          	addi	sp,sp,16
 360:	00008067          	ret

00000364 <putchar>:
 364:	004007b7          	lui	a5,0x400
 368:	00a7a423          	sw	a0,8(a5) # 400008 <IO_BASE+0x8>
 36c:	00008067          	ret

00000370 <print_string>:
 370:	00054783          	lbu	a5,0(a0)
 374:	00078c63          	beqz	a5,38c <print_string+0x1c>
 378:	00400737          	lui	a4,0x400
 37c:	00f72423          	sw	a5,8(a4) # 400008 <IO_BASE+0x8>
 380:	00154783          	lbu	a5,1(a0)
 384:	00150513          	addi	a0,a0,1
 388:	fe079ae3          	bnez	a5,37c <print_string+0xc>
 38c:	00008067          	ret

00000390 <puts>:
 390:	00054783          	lbu	a5,0(a0)
 394:	00078c63          	beqz	a5,3ac <puts+0x1c>
 398:	00400737          	lui	a4,0x400
 39c:	00f72423          	sw	a5,8(a4) # 400008 <IO_BASE+0x8>
 3a0:	00154783          	lbu	a5,1(a0)
 3a4:	00150513          	addi	a0,a0,1
 3a8:	fe079ae3          	bnez	a5,39c <puts+0xc>
 3ac:	004007b7          	lui	a5,0x400
 3b0:	00a00713          	li	a4,10
 3b4:	00e7a423          	sw	a4,8(a5) # 400008 <IO_BASE+0x8>
 3b8:	00100513          	li	a0,1
 3bc:	00008067          	ret

000003c0 <print_dec>:
 3c0:	ef010113          	addi	sp,sp,-272
 3c4:	10812423          	sw	s0,264(sp)
 3c8:	10112623          	sw	ra,268(sp)
 3cc:	10912223          	sw	s1,260(sp)
 3d0:	11212023          	sw	s2,256(sp)
 3d4:	00050413          	mv	s0,a0
 3d8:	00055a63          	bgez	a0,3ec <print_dec+0x2c>
 3dc:	004007b7          	lui	a5,0x400
 3e0:	02d00713          	li	a4,45
 3e4:	00e7a423          	sw	a4,8(a5) # 400008 <IO_BASE+0x8>
 3e8:	40a00433          	neg	s0,a0
 3ec:	00010913          	mv	s2,sp
 3f0:	00090493          	mv	s1,s2
 3f4:	0240006f          	j	418 <print_dec+0x58>
 3f8:	158000ef          	jal	ra,550 <__modsi3>
 3fc:	00050793          	mv	a5,a0
 400:	00f48023          	sb	a5,0(s1)
 404:	00040513          	mv	a0,s0
 408:	00a00593          	li	a1,10
 40c:	0c0000ef          	jal	ra,4cc <__divsi3>
 410:	00148493          	addi	s1,s1,1
 414:	00050413          	mv	s0,a0
 418:	00a00593          	li	a1,10
 41c:	00040513          	mv	a0,s0
 420:	fc041ce3          	bnez	s0,3f8 <print_dec+0x38>
 424:	fd248ae3          	beq	s1,s2,3f8 <print_dec+0x38>
 428:	00400737          	lui	a4,0x400
 42c:	fff4c783          	lbu	a5,-1(s1)
 430:	fff48493          	addi	s1,s1,-1
 434:	03078793          	addi	a5,a5,48
 438:	0ff7f793          	zext.b	a5,a5
 43c:	00f72423          	sw	a5,8(a4) # 400008 <IO_BASE+0x8>
 440:	ff2496e3          	bne	s1,s2,42c <print_dec+0x6c>
 444:	10c12083          	lw	ra,268(sp)
 448:	10812403          	lw	s0,264(sp)
 44c:	10412483          	lw	s1,260(sp)
 450:	10012903          	lw	s2,256(sp)
 454:	11010113          	addi	sp,sp,272
 458:	00008067          	ret

0000045c <print_hex>:
 45c:	01c00713          	li	a4,28
 460:	00013597          	auipc	a1,0x13
 464:	bf858593          	addi	a1,a1,-1032 # 13058 <riscv_96x64_map+0x3000>
 468:	00400637          	lui	a2,0x400
 46c:	ffc00693          	li	a3,-4
 470:	00e557b3          	srl	a5,a0,a4
 474:	00f7f793          	andi	a5,a5,15
 478:	00f587b3          	add	a5,a1,a5
 47c:	0007c783          	lbu	a5,0(a5)
 480:	ffc70713          	addi	a4,a4,-4
 484:	00f62423          	sw	a5,8(a2) # 400008 <IO_BASE+0x8>
 488:	fed714e3          	bne	a4,a3,470 <print_hex+0x14>
 48c:	00008067          	ret

00000490 <print_hex_digits>:
 490:	fff58593          	addi	a1,a1,-1
 494:	00259593          	slli	a1,a1,0x2
 498:	0205c863          	bltz	a1,4c8 <print_hex_digits+0x38>
 49c:	00013617          	auipc	a2,0x13
 4a0:	bbc60613          	addi	a2,a2,-1092 # 13058 <riscv_96x64_map+0x3000>
 4a4:	004006b7          	lui	a3,0x400
 4a8:	ffc00713          	li	a4,-4
 4ac:	00b557b3          	srl	a5,a0,a1
 4b0:	00f7f793          	andi	a5,a5,15
 4b4:	00f607b3          	add	a5,a2,a5
 4b8:	0007c783          	lbu	a5,0(a5)
 4bc:	ffc58593          	addi	a1,a1,-4
 4c0:	00f6a423          	sw	a5,8(a3) # 400008 <IO_BASE+0x8>
 4c4:	fee594e3          	bne	a1,a4,4ac <print_hex_digits+0x1c>
 4c8:	00008067          	ret

000004cc <__divsi3>:
 4cc:	06054063          	bltz	a0,52c <__umodsi3+0x10>
 4d0:	0605c663          	bltz	a1,53c <__umodsi3+0x20>

000004d4 <__udivsi3>:
 4d4:	00058613          	mv	a2,a1
 4d8:	00050593          	mv	a1,a0
 4dc:	fff00513          	li	a0,-1
 4e0:	02060c63          	beqz	a2,518 <__udivsi3+0x44>
 4e4:	00100693          	li	a3,1
 4e8:	00b67a63          	bgeu	a2,a1,4fc <__udivsi3+0x28>
 4ec:	00c05863          	blez	a2,4fc <__udivsi3+0x28>
 4f0:	00161613          	slli	a2,a2,0x1
 4f4:	00169693          	slli	a3,a3,0x1
 4f8:	feb66ae3          	bltu	a2,a1,4ec <__udivsi3+0x18>
 4fc:	00000513          	li	a0,0
 500:	00c5e663          	bltu	a1,a2,50c <__udivsi3+0x38>
 504:	40c585b3          	sub	a1,a1,a2
 508:	00d56533          	or	a0,a0,a3
 50c:	0016d693          	srli	a3,a3,0x1
 510:	00165613          	srli	a2,a2,0x1
 514:	fe0696e3          	bnez	a3,500 <__udivsi3+0x2c>
 518:	00008067          	ret

0000051c <__umodsi3>:
 51c:	00008293          	mv	t0,ra
 520:	fb5ff0ef          	jal	ra,4d4 <__udivsi3>
 524:	00058513          	mv	a0,a1
 528:	00028067          	jr	t0
 52c:	40a00533          	neg	a0,a0
 530:	0005d863          	bgez	a1,540 <__umodsi3+0x24>
 534:	40b005b3          	neg	a1,a1
 538:	f95ff06f          	j	4cc <__divsi3>
 53c:	40b005b3          	neg	a1,a1
 540:	00008293          	mv	t0,ra
 544:	f89ff0ef          	jal	ra,4cc <__divsi3>
 548:	40a00533          	neg	a0,a0
 54c:	00028067          	jr	t0

00000550 <__modsi3>:
 550:	00008293          	mv	t0,ra
 554:	0005ca63          	bltz	a1,568 <__modsi3+0x18>
 558:	00054c63          	bltz	a0,570 <__modsi3+0x20>
 55c:	f79ff0ef          	jal	ra,4d4 <__udivsi3>
 560:	00058513          	mv	a0,a1
 564:	00028067          	jr	t0
 568:	40b005b3          	neg	a1,a1
 56c:	fe0558e3          	bgez	a0,55c <__modsi3+0xc>
 570:	40a00533          	neg	a0,a0
 574:	f61ff0ef          	jal	ra,4d4 <__udivsi3>
 578:	40b00533          	neg	a0,a1
 57c:	00028067          	jr	t0

Déassemblage de la section .data :

00010000 <riscv_96x64_map-0x58>:
   10000:	6928                	.2byte	0x6928
   10002:	2969                	.2byte	0x2969
   10004:	000a                	.2byte	0xa
   10006:	0000                	.2byte	0x0
   10008:	6928                	.2byte	0x6928
   1000a:	2969                	.2byte	0x2969
   1000c:	4f20                	.2byte	0x4f20
   1000e:	454c                	.2byte	0x454c
   10010:	2044                	.2byte	0x2044
   10012:	7264                	.2byte	0x7264
   10014:	7761                	.2byte	0x7761
   10016:	6e69                	.2byte	0x6e69
   10018:	72702067          	.4byte	0x72702067
   1001c:	6172676f          	jal	a4,36e32 <riscv_96x64_map+0x26dda>
   10020:	206d                	.2byte	0x206d
   10022:	0a21                	.2byte	0xa21
   10024:	0000                	.2byte	0x0
   10026:	0000                	.2byte	0x0
   10028:	6928                	.2byte	0x6928
   1002a:	2969                	.2byte	0x2969
   1002c:	7220                	.2byte	0x7220
   1002e:	6c65                	.2byte	0x6c65
   10030:	6165                	.2byte	0x6165
   10032:	3a206573          	.4byte	0x3a206573
   10036:	000a                	.2byte	0xa
   10038:	6928                	.2byte	0x6928
   1003a:	2969                	.2byte	0x2969
   1003c:	0020                	.2byte	0x20
   1003e:	0000                	.2byte	0x0
   10040:	614d                	.2byte	0x614d
   10042:	2079                	.2byte	0x2079
   10044:	3732                	.2byte	0x3732
   10046:	3220                	.2byte	0x3220
   10048:	3230                	.2byte	0x3230
   1004a:	0034                	.2byte	0x34
   1004c:	3830                	.2byte	0x3830
   1004e:	323a                	.2byte	0x323a
   10050:	3a30                	.2byte	0x3a30
   10052:	3735                	.2byte	0x3735
   10054:	0000                	.2byte	0x0
	...

00010058 <riscv_96x64_map>:
   10058:	9496                	.2byte	0x9496
   1005a:	9496                	.2byte	0x9496
   1005c:	9496                	.2byte	0x9496
   1005e:	9496                	.2byte	0x9496
   10060:	bdfa                	.2byte	0xbdfa
   10062:	9cd6                	.2byte	0x9cd6
   10064:	9cd6                	.2byte	0x9cd6
   10066:	9cd6                	.2byte	0x9cd6
   10068:	9cd6                	.2byte	0x9cd6
   1006a:	9cd6                	.2byte	0x9cd6
   1006c:	9cd6                	.2byte	0x9cd6
   1006e:	9cd6                	.2byte	0x9cd6
   10070:	9cd6                	.2byte	0x9cd6
   10072:	9cd6                	.2byte	0x9cd6
   10074:	9cd6                	.2byte	0x9cd6
   10076:	9cd6                	.2byte	0x9cd6
   10078:	9cd6                	.2byte	0x9cd6
   1007a:	9cd6                	.2byte	0x9cd6
   1007c:	9cd6                	.2byte	0x9cd6
   1007e:	9cd6                	.2byte	0x9cd6
   10080:	9cd6                	.2byte	0x9cd6
   10082:	9cd6                	.2byte	0x9cd6
   10084:	9cd6                	.2byte	0x9cd6
   10086:	9cd6                	.2byte	0x9cd6
   10088:	9cd6                	.2byte	0x9cd6
   1008a:	9cd6                	.2byte	0x9cd6
   1008c:	9cd6                	.2byte	0x9cd6
   1008e:	9cd6                	.2byte	0x9cd6
   10090:	9cd6                	.2byte	0x9cd6
   10092:	9cd6                	.2byte	0x9cd6
   10094:	9cd6                	.2byte	0x9cd6
   10096:	9cd6                	.2byte	0x9cd6
   10098:	9cd6                	.2byte	0x9cd6
   1009a:	9cd6                	.2byte	0x9cd6
   1009c:	9cd6                	.2byte	0x9cd6
   1009e:	9cd6                	.2byte	0x9cd6
   100a0:	9cd6                	.2byte	0x9cd6
   100a2:	9cd6                	.2byte	0x9cd6
   100a4:	9cd6                	.2byte	0x9cd6
   100a6:	9cd6                	.2byte	0x9cd6
   100a8:	9cd6                	.2byte	0x9cd6
   100aa:	9cd6                	.2byte	0x9cd6
   100ac:	9cd6                	.2byte	0x9cd6
   100ae:	9cd6                	.2byte	0x9cd6
   100b0:	9cd6                	.2byte	0x9cd6
   100b2:	9cd6                	.2byte	0x9cd6
   100b4:	9cd6                	.2byte	0x9cd6
   100b6:	9cd6                	.2byte	0x9cd6
   100b8:	9cd6                	.2byte	0x9cd6
   100ba:	9cd6                	.2byte	0x9cd6
   100bc:	9cd6                	.2byte	0x9cd6
   100be:	9cd6                	.2byte	0x9cd6
   100c0:	9cd6                	.2byte	0x9cd6
   100c2:	9cd6                	.2byte	0x9cd6
   100c4:	9cd6                	.2byte	0x9cd6
   100c6:	9cd6                	.2byte	0x9cd6
   100c8:	9cd6                	.2byte	0x9cd6
   100ca:	9cd6                	.2byte	0x9cd6
   100cc:	9cd6                	.2byte	0x9cd6
   100ce:	9cd6                	.2byte	0x9cd6
   100d0:	9cd6                	.2byte	0x9cd6
   100d2:	9cd6                	.2byte	0x9cd6
   100d4:	9cd6                	.2byte	0x9cd6
   100d6:	9cd6                	.2byte	0x9cd6
   100d8:	9cd6                	.2byte	0x9cd6
   100da:	9cd6                	.2byte	0x9cd6
   100dc:	9cd6                	.2byte	0x9cd6
   100de:	9cd6                	.2byte	0x9cd6
   100e0:	9cd6                	.2byte	0x9cd6
   100e2:	9cd6                	.2byte	0x9cd6
   100e4:	9cd6                	.2byte	0x9cd6
   100e6:	9cd6                	.2byte	0x9cd6
   100e8:	9cd6                	.2byte	0x9cd6
   100ea:	9cd6                	.2byte	0x9cd6
   100ec:	9cd6                	.2byte	0x9cd6
   100ee:	9cd6                	.2byte	0x9cd6
   100f0:	9cd6                	.2byte	0x9cd6
   100f2:	9cd6                	.2byte	0x9cd6
   100f4:	9cd6                	.2byte	0x9cd6
   100f6:	9cd6                	.2byte	0x9cd6
   100f8:	9cd6                	.2byte	0x9cd6
   100fa:	9cd6                	.2byte	0x9cd6
   100fc:	9cd6                	.2byte	0x9cd6
   100fe:	b5b9                	.2byte	0xb5b9
   10100:	ffff                	.2byte	0xffff
   10102:	ffff                	.2byte	0xffff
   10104:	ffff                	.2byte	0xffff
   10106:	ffff                	.2byte	0xffff
   10108:	ffff                	.2byte	0xffff
   1010a:	ffff                	.2byte	0xffff
   1010c:	ffff                	.2byte	0xffff
   1010e:	ffff                	.2byte	0xffff
   10110:	ffff                	.2byte	0xffff
   10112:	ffff                	.2byte	0xffff
   10114:	ffff                	.2byte	0xffff
   10116:	ffff                	.2byte	0xffff
   10118:	9496                	.2byte	0x9496
   1011a:	9496                	.2byte	0x9496
   1011c:	9496                	.2byte	0x9496
   1011e:	9496                	.2byte	0x9496
   10120:	9496                	.2byte	0x9496
   10122:	298f298f          	.4byte	0x298f298f
   10126:	298f298f          	.4byte	0x298f298f
   1012a:	298f298f          	.4byte	0x298f298f
   1012e:	298f298f          	.4byte	0x298f298f
   10132:	298f298f          	.4byte	0x298f298f
   10136:	298f298f          	.4byte	0x298f298f
   1013a:	298f298f          	.4byte	0x298f298f
   1013e:	298f298f          	.4byte	0x298f298f
   10142:	298f298f          	.4byte	0x298f298f
   10146:	298f298f          	.4byte	0x298f298f
   1014a:	298f298f          	.4byte	0x298f298f
   1014e:	298f298f          	.4byte	0x298f298f
   10152:	298f298f          	.4byte	0x298f298f
   10156:	298f298f          	.4byte	0x298f298f
   1015a:	298f298f          	.4byte	0x298f298f
   1015e:	298f298f          	.4byte	0x298f298f
   10162:	298f298f          	.4byte	0x298f298f
   10166:	298f298f          	.4byte	0x298f298f
   1016a:	298f298f          	.4byte	0x298f298f
   1016e:	298f298f          	.4byte	0x298f298f
   10172:	298f298f          	.4byte	0x298f298f
   10176:	298f298f          	.4byte	0x298f298f
   1017a:	298f298f          	.4byte	0x298f298f
   1017e:	298f298f          	.4byte	0x298f298f
   10182:	298f298f          	.4byte	0x298f298f
   10186:	298f298f          	.4byte	0x298f298f
   1018a:	298f298f          	.4byte	0x298f298f
   1018e:	298f298f          	.4byte	0x298f298f
   10192:	298f298f          	.4byte	0x298f298f
   10196:	298f298f          	.4byte	0x298f298f
   1019a:	298f298f          	.4byte	0x298f298f
   1019e:	298f298f          	.4byte	0x298f298f
   101a2:	298f298f          	.4byte	0x298f298f
   101a6:	298f298f          	.4byte	0x298f298f
   101aa:	298f298f          	.4byte	0x298f298f
   101ae:	298f298f          	.4byte	0x298f298f
   101b2:	298f298f          	.4byte	0x298f298f
   101b6:	298f298f          	.4byte	0x298f298f
   101ba:	298f298f          	.4byte	0x298f298f
   101be:	8414                	.2byte	0x8414
   101c0:	ffff                	.2byte	0xffff
   101c2:	ffff                	.2byte	0xffff
   101c4:	ffff                	.2byte	0xffff
   101c6:	ffff                	.2byte	0xffff
   101c8:	ffff                	.2byte	0xffff
   101ca:	ffff                	.2byte	0xffff
   101cc:	ffff                	.2byte	0xffff
   101ce:	ffff                	.2byte	0xffff
   101d0:	ffff                	.2byte	0xffff
   101d2:	ffff                	.2byte	0xffff
   101d4:	ffff                	.2byte	0xffff
   101d6:	ffff                	.2byte	0xffff
   101d8:	9496                	.2byte	0x9496
   101da:	9496                	.2byte	0x9496
   101dc:	9496                	.2byte	0x9496
   101de:	9496                	.2byte	0x9496
   101e0:	9496                	.2byte	0x9496
   101e2:	298f298f          	.4byte	0x298f298f
   101e6:	298f298f          	.4byte	0x298f298f
   101ea:	298f298f          	.4byte	0x298f298f
   101ee:	298f298f          	.4byte	0x298f298f
   101f2:	298f298f          	.4byte	0x298f298f
   101f6:	298f298f          	.4byte	0x298f298f
   101fa:	298f298f          	.4byte	0x298f298f
   101fe:	298f298f          	.4byte	0x298f298f
   10202:	298f298f          	.4byte	0x298f298f
   10206:	298f298f          	.4byte	0x298f298f
   1020a:	298f298f          	.4byte	0x298f298f
   1020e:	298f298f          	.4byte	0x298f298f
   10212:	298f298f          	.4byte	0x298f298f
   10216:	298f298f          	.4byte	0x298f298f
   1021a:	298f298f          	.4byte	0x298f298f
   1021e:	298f298f          	.4byte	0x298f298f
   10222:	298f298f          	.4byte	0x298f298f
   10226:	298f298f          	.4byte	0x298f298f
   1022a:	298f298f          	.4byte	0x298f298f
   1022e:	298f298f          	.4byte	0x298f298f
   10232:	298f298f          	.4byte	0x298f298f
   10236:	298f298f          	.4byte	0x298f298f
   1023a:	298f298f          	.4byte	0x298f298f
   1023e:	298f298f          	.4byte	0x298f298f
   10242:	298f298f          	.4byte	0x298f298f
   10246:	298f298f          	.4byte	0x298f298f
   1024a:	298f298f          	.4byte	0x298f298f
   1024e:	298f298f          	.4byte	0x298f298f
   10252:	298f298f          	.4byte	0x298f298f
   10256:	298f298f          	.4byte	0x298f298f
   1025a:	298f298f          	.4byte	0x298f298f
   1025e:	298f298f          	.4byte	0x298f298f
   10262:	298f298f          	.4byte	0x298f298f
   10266:	298f298f          	.4byte	0x298f298f
   1026a:	298f298f          	.4byte	0x298f298f
   1026e:	298f298f          	.4byte	0x298f298f
   10272:	298f298f          	.4byte	0x298f298f
   10276:	298f298f          	.4byte	0x298f298f
   1027a:	298f298f          	.4byte	0x298f298f
   1027e:	8414                	.2byte	0x8414
   10280:	ffff                	.2byte	0xffff
   10282:	ffff                	.2byte	0xffff
   10284:	ffff                	.2byte	0xffff
   10286:	ffff                	.2byte	0xffff
   10288:	ffff                	.2byte	0xffff
   1028a:	ffff                	.2byte	0xffff
   1028c:	ffff                	.2byte	0xffff
   1028e:	ffff                	.2byte	0xffff
   10290:	ffff                	.2byte	0xffff
   10292:	ffff                	.2byte	0xffff
   10294:	ffff                	.2byte	0xffff
   10296:	ffff                	.2byte	0xffff
   10298:	9496                	.2byte	0x9496
   1029a:	9496                	.2byte	0x9496
   1029c:	9496                	.2byte	0x9496
   1029e:	9496                	.2byte	0x9496
   102a0:	9496                	.2byte	0x9496
   102a2:	298f298f          	.4byte	0x298f298f
   102a6:	298f298f          	.4byte	0x298f298f
   102aa:	298f298f          	.4byte	0x298f298f
   102ae:	298f298f          	.4byte	0x298f298f
   102b2:	298f298f          	.4byte	0x298f298f
   102b6:	298f298f          	.4byte	0x298f298f
   102ba:	298f298f          	.4byte	0x298f298f
   102be:	298f298f          	.4byte	0x298f298f
   102c2:	298f298f          	.4byte	0x298f298f
   102c6:	298f298f          	.4byte	0x298f298f
   102ca:	298f298f          	.4byte	0x298f298f
   102ce:	298f298f          	.4byte	0x298f298f
   102d2:	298f298f          	.4byte	0x298f298f
   102d6:	298f298f          	.4byte	0x298f298f
   102da:	298f298f          	.4byte	0x298f298f
   102de:	298f298f          	.4byte	0x298f298f
   102e2:	298f298f          	.4byte	0x298f298f
   102e6:	298f298f          	.4byte	0x298f298f
   102ea:	298f298f          	.4byte	0x298f298f
   102ee:	298f298f          	.4byte	0x298f298f
   102f2:	298f298f          	.4byte	0x298f298f
   102f6:	298f298f          	.4byte	0x298f298f
   102fa:	298f298f          	.4byte	0x298f298f
   102fe:	298f298f          	.4byte	0x298f298f
   10302:	298f298f          	.4byte	0x298f298f
   10306:	298f298f          	.4byte	0x298f298f
   1030a:	298f298f          	.4byte	0x298f298f
   1030e:	298f298f          	.4byte	0x298f298f
   10312:	298f298f          	.4byte	0x298f298f
   10316:	298f298f          	.4byte	0x298f298f
   1031a:	298f298f          	.4byte	0x298f298f
   1031e:	298f298f          	.4byte	0x298f298f
   10322:	298f298f          	.4byte	0x298f298f
   10326:	298f298f          	.4byte	0x298f298f
   1032a:	298f298f          	.4byte	0x298f298f
   1032e:	298f298f          	.4byte	0x298f298f
   10332:	298f298f          	.4byte	0x298f298f
   10336:	298f298f          	.4byte	0x298f298f
   1033a:	298f298f          	.4byte	0x298f298f
   1033e:	8414                	.2byte	0x8414
   10340:	ffff                	.2byte	0xffff
   10342:	ffff                	.2byte	0xffff
   10344:	ffff                	.2byte	0xffff
   10346:	ffff                	.2byte	0xffff
   10348:	ffff                	.2byte	0xffff
   1034a:	ffff                	.2byte	0xffff
   1034c:	ffff                	.2byte	0xffff
   1034e:	ffff                	.2byte	0xffff
   10350:	ffff                	.2byte	0xffff
   10352:	ffff                	.2byte	0xffff
   10354:	ffff                	.2byte	0xffff
   10356:	ffff                	.2byte	0xffff
   10358:	9496                	.2byte	0x9496
   1035a:	9496                	.2byte	0x9496
   1035c:	9496                	.2byte	0x9496
   1035e:	9496                	.2byte	0x9496
   10360:	9496                	.2byte	0x9496
   10362:	298f298f          	.4byte	0x298f298f
   10366:	298f298f          	.4byte	0x298f298f
   1036a:	4a70298f          	.4byte	0x4a70298f
   1036e:	5af2                	.2byte	0x5af2
   10370:	298f31ef          	jal	gp,103608 <riscv_96x64_map+0xf35b0>
   10374:	298f298f          	.4byte	0x298f298f
   10378:	39f031ef          	jal	gp,13f16 <riscv_96x64_map+0x3ebe>
   1037c:	39f0                	.2byte	0x39f0
   1037e:	39f0                	.2byte	0x39f0
   10380:	39f0                	.2byte	0x39f0
   10382:	39f0                	.2byte	0x39f0
   10384:	39f0                	.2byte	0x39f0
   10386:	298f31ef          	jal	gp,10361e <riscv_96x64_map+0xf35c6>
   1038a:	298f298f          	.4byte	0x298f298f
   1038e:	298f298f          	.4byte	0x298f298f
   10392:	298f298f          	.4byte	0x298f298f
   10396:	298f298f          	.4byte	0x298f298f
   1039a:	298f298f          	.4byte	0x298f298f
   1039e:	298f298f          	.4byte	0x298f298f
   103a2:	298f298f          	.4byte	0x298f298f
   103a6:	298f298f          	.4byte	0x298f298f
   103aa:	298f298f          	.4byte	0x298f298f
   103ae:	298f298f          	.4byte	0x298f298f
   103b2:	298f298f          	.4byte	0x298f298f
   103b6:	298f298f          	.4byte	0x298f298f
   103ba:	298f298f          	.4byte	0x298f298f
   103be:	298f298f          	.4byte	0x298f298f
   103c2:	298f298f          	.4byte	0x298f298f
   103c6:	5b12298f          	.4byte	0x5b12298f
   103ca:	d6bcce5b          	.4byte	0xd6bcce5b
   103ce:	d6bc                	.2byte	0xd6bc
   103d0:	d6bc                	.2byte	0xd6bc
   103d2:	bdd9                	.2byte	0xbdd9
   103d4:	298f298f          	.4byte	0x298f298f
   103d8:	298f298f          	.4byte	0x298f298f
   103dc:	298f298f          	.4byte	0x298f298f
   103e0:	298f298f          	.4byte	0x298f298f
   103e4:	298f298f          	.4byte	0x298f298f
   103e8:	298f298f          	.4byte	0x298f298f
   103ec:	298f298f          	.4byte	0x298f298f
   103f0:	298f298f          	.4byte	0x298f298f
   103f4:	298f298f          	.4byte	0x298f298f
   103f8:	298f298f          	.4byte	0x298f298f
   103fc:	8414298f          	.4byte	0x8414298f
   10400:	ffff                	.2byte	0xffff
   10402:	ffff                	.2byte	0xffff
   10404:	ffff                	.2byte	0xffff
   10406:	ffff                	.2byte	0xffff
   10408:	ffff                	.2byte	0xffff
   1040a:	ffff                	.2byte	0xffff
   1040c:	ffff                	.2byte	0xffff
   1040e:	ffff                	.2byte	0xffff
   10410:	ffff                	.2byte	0xffff
   10412:	ffff                	.2byte	0xffff
   10414:	ffff                	.2byte	0xffff
   10416:	ffff                	.2byte	0xffff
   10418:	9496                	.2byte	0x9496
   1041a:	9496                	.2byte	0x9496
   1041c:	9496                	.2byte	0x9496
   1041e:	9496                	.2byte	0x9496
   10420:	9496                	.2byte	0x9496
   10422:	298f298f          	.4byte	0x298f298f
   10426:	298f298f          	.4byte	0x298f298f
   1042a:	c63a9cf7          	.4byte	0xc63a9cf7
   1042e:	bdd9                	.2byte	0xbdd9
   10430:	6332ce3b          	.4byte	0x6332ce3b
   10434:	4230298f          	.4byte	0x4230298f
   10438:	e71d                	.2byte	0xe71d
   1043a:	f77e                	.2byte	0xf77e
   1043c:	f77e                	.2byte	0xf77e
   1043e:	f77e                	.2byte	0xf77e
   10440:	f77e                	.2byte	0xf77e
   10442:	f77e                	.2byte	0xf77e
   10444:	f77e                	.2byte	0xf77e
   10446:	defd                	.2byte	0xdefd
   10448:	298f31cf          	.4byte	0x298f31cf
   1044c:	298f298f          	.4byte	0x298f298f
   10450:	298f298f          	.4byte	0x298f298f
   10454:	298f298f          	.4byte	0x298f298f
   10458:	298f298f          	.4byte	0x298f298f
   1045c:	298f298f          	.4byte	0x298f298f
   10460:	298f298f          	.4byte	0x298f298f
   10464:	298f298f          	.4byte	0x298f298f
   10468:	298f298f          	.4byte	0x298f298f
   1046c:	298f298f          	.4byte	0x298f298f
   10470:	298f298f          	.4byte	0x298f298f
   10474:	298f298f          	.4byte	0x298f298f
   10478:	298f298f          	.4byte	0x298f298f
   1047c:	298f298f          	.4byte	0x298f298f
   10480:	298f298f          	.4byte	0x298f298f
   10484:	7bd4298f          	.4byte	0x7bd4298f
   10488:	ef7e                	.2byte	0xef7e
   1048a:	ffff                	.2byte	0xffff
   1048c:	ffff                	.2byte	0xffff
   1048e:	ffff                	.2byte	0xffff
   10490:	ffff                	.2byte	0xffff
   10492:	e71d                	.2byte	0xe71d
   10494:	298f298f          	.4byte	0x298f298f
   10498:	298f298f          	.4byte	0x298f298f
   1049c:	298f298f          	.4byte	0x298f298f
   104a0:	298f298f          	.4byte	0x298f298f
   104a4:	298f298f          	.4byte	0x298f298f
   104a8:	298f298f          	.4byte	0x298f298f
   104ac:	298f298f          	.4byte	0x298f298f
   104b0:	298f298f          	.4byte	0x298f298f
   104b4:	298f298f          	.4byte	0x298f298f
   104b8:	298f298f          	.4byte	0x298f298f
   104bc:	8414298f          	.4byte	0x8414298f
   104c0:	ffff                	.2byte	0xffff
   104c2:	ffff                	.2byte	0xffff
   104c4:	ffff                	.2byte	0xffff
   104c6:	ffff                	.2byte	0xffff
   104c8:	ffff                	.2byte	0xffff
   104ca:	ffff                	.2byte	0xffff
   104cc:	ffff                	.2byte	0xffff
   104ce:	ffff                	.2byte	0xffff
   104d0:	ffff                	.2byte	0xffff
   104d2:	ffff                	.2byte	0xffff
   104d4:	ffff                	.2byte	0xffff
   104d6:	ffff                	.2byte	0xffff
   104d8:	9496                	.2byte	0x9496
   104da:	9496                	.2byte	0x9496
   104dc:	9496                	.2byte	0x9496
   104de:	9496                	.2byte	0x9496
   104e0:	9496                	.2byte	0x9496
   104e2:	298f298f          	.4byte	0x298f298f
   104e6:	4a71298f          	.4byte	0x4a71298f
   104ea:	bdd9                	.2byte	0xbdd9
   104ec:	298f29af          	.4byte	0x298f29af
   104f0:	6312                	.2byte	0x6312
   104f2:	b599                	.2byte	0xb599
   104f4:	3a10298f          	.4byte	0x3a10298f
   104f8:	dedcce5b          	.4byte	0xdedcce5b
   104fc:	dedc                	.2byte	0xdedc
   104fe:	ffdf ffbf dedc      	.byte	0xdf, 0xff, 0xbf, 0xff, 0xdc, 0xde
   10504:	ffdf ef7e 31cf      	.byte	0xdf, 0xff, 0x7e, 0xef, 0xcf, 0x31
   1050a:	298f298f          	.4byte	0x298f298f
   1050e:	298f298f          	.4byte	0x298f298f
   10512:	298f298f          	.4byte	0x298f298f
   10516:	298f298f          	.4byte	0x298f298f
   1051a:	298f298f          	.4byte	0x298f298f
   1051e:	298f298f          	.4byte	0x298f298f
   10522:	298f298f          	.4byte	0x298f298f
   10526:	298f298f          	.4byte	0x298f298f
   1052a:	298f298f          	.4byte	0x298f298f
   1052e:	298f298f          	.4byte	0x298f298f
   10532:	298f298f          	.4byte	0x298f298f
   10536:	298f298f          	.4byte	0x298f298f
   1053a:	298f298f          	.4byte	0x298f298f
   1053e:	298f298f          	.4byte	0x298f298f
   10542:	9cd629af          	.4byte	0x9cd629af
   10546:	ffffffbf ffffffff 	.8byte	0xffffffffffffffbf
   1054e:	ffff                	.2byte	0xffff
   10550:	ffff                	.2byte	0xffff
   10552:	e71d                	.2byte	0xe71d
   10554:	298f298f          	.4byte	0x298f298f
   10558:	298f298f          	.4byte	0x298f298f
   1055c:	298f298f          	.4byte	0x298f298f
   10560:	298f298f          	.4byte	0x298f298f
   10564:	298f298f          	.4byte	0x298f298f
   10568:	298f298f          	.4byte	0x298f298f
   1056c:	298f298f          	.4byte	0x298f298f
   10570:	298f298f          	.4byte	0x298f298f
   10574:	298f298f          	.4byte	0x298f298f
   10578:	298f298f          	.4byte	0x298f298f
   1057c:	8414298f          	.4byte	0x8414298f
   10580:	ffff                	.2byte	0xffff
   10582:	ffff                	.2byte	0xffff
   10584:	ffff                	.2byte	0xffff
   10586:	ffff                	.2byte	0xffff
   10588:	ffff                	.2byte	0xffff
   1058a:	ffff                	.2byte	0xffff
   1058c:	ffff                	.2byte	0xffff
   1058e:	ffff                	.2byte	0xffff
   10590:	ffff                	.2byte	0xffff
   10592:	ffff                	.2byte	0xffff
   10594:	ffff                	.2byte	0xffff
   10596:	ffff                	.2byte	0xffff
   10598:	9496                	.2byte	0x9496
   1059a:	9496                	.2byte	0x9496
   1059c:	9496                	.2byte	0x9496
   1059e:	9496                	.2byte	0x9496
   105a0:	9496                	.2byte	0x9496
   105a2:	298f298f          	.4byte	0x298f298f
   105a6:	5b12298f          	.4byte	0x5b12298f
   105aa:	ad58                	.2byte	0xad58
   105ac:	298f298f          	.4byte	0x298f298f
   105b0:	b5b931ef          	jal	gp,fffa410a <IO_BASE+0xffba410a>
   105b4:	298f298f          	.4byte	0x298f298f
   105b8:	298f298f          	.4byte	0x298f298f
   105bc:	ef5e31af          	.4byte	0xef5e31af
   105c0:	dedc                	.2byte	0xdedc
   105c2:	e71d298f          	.4byte	0xe71d298f
   105c6:	ef7e                	.2byte	0xef7e
   105c8:	298f31cf          	.4byte	0x298f31cf
   105cc:	298f298f          	.4byte	0x298f298f
   105d0:	298f298f          	.4byte	0x298f298f
   105d4:	298f298f          	.4byte	0x298f298f
   105d8:	298f298f          	.4byte	0x298f298f
   105dc:	298f298f          	.4byte	0x298f298f
   105e0:	298f298f          	.4byte	0x298f298f
   105e4:	298f298f          	.4byte	0x298f298f
   105e8:	298f298f          	.4byte	0x298f298f
   105ec:	298f298f          	.4byte	0x298f298f
   105f0:	298f298f          	.4byte	0x298f298f
   105f4:	298f298f          	.4byte	0x298f298f
   105f8:	298f298f          	.4byte	0x298f298f
   105fc:	298f298f          	.4byte	0x298f298f
   10600:	b5b931ef          	jal	gp,fffa415a <IO_BASE+0xffba415a>
   10604:	ffff                	.2byte	0xffff
   10606:	ffff                	.2byte	0xffff
   10608:	ffff                	.2byte	0xffff
   1060a:	ffff                	.2byte	0xffff
   1060c:	ffff                	.2byte	0xffff
   1060e:	ffff                	.2byte	0xffff
   10610:	ffff                	.2byte	0xffff
   10612:	e71d                	.2byte	0xe71d
   10614:	298f298f          	.4byte	0x298f298f
   10618:	298f298f          	.4byte	0x298f298f
   1061c:	298f298f          	.4byte	0x298f298f
   10620:	298f298f          	.4byte	0x298f298f
   10624:	298f298f          	.4byte	0x298f298f
   10628:	298f298f          	.4byte	0x298f298f
   1062c:	298f298f          	.4byte	0x298f298f
   10630:	298f298f          	.4byte	0x298f298f
   10634:	298f298f          	.4byte	0x298f298f
   10638:	298f298f          	.4byte	0x298f298f
   1063c:	8414298f          	.4byte	0x8414298f
   10640:	ffff                	.2byte	0xffff
   10642:	ffff                	.2byte	0xffff
   10644:	ffff                	.2byte	0xffff
   10646:	ffff                	.2byte	0xffff
   10648:	ffff                	.2byte	0xffff
   1064a:	ffff                	.2byte	0xffff
   1064c:	ffff                	.2byte	0xffff
   1064e:	ffff                	.2byte	0xffff
   10650:	ffff                	.2byte	0xffff
   10652:	ffff                	.2byte	0xffff
   10654:	ffff                	.2byte	0xffff
   10656:	ffff                	.2byte	0xffff
   10658:	9496                	.2byte	0x9496
   1065a:	9496                	.2byte	0x9496
   1065c:	9496                	.2byte	0x9496
   1065e:	9496                	.2byte	0x9496
   10660:	9496                	.2byte	0x9496
   10662:	298f298f          	.4byte	0x298f298f
   10666:	31ef298f          	.4byte	0x31ef298f
   1066a:	c61a                	.2byte	0xc61a
   1066c:	29af6b73          	.4byte	0x29af6b73
   10670:	94d6                	.2byte	0x94d6
   10672:	298fa537          	lui	a0,0x298fa
   10676:	298f298f          	.4byte	0x298f298f
   1067a:	31af298f          	.4byte	0x31af298f
   1067e:	ef5e                	.2byte	0xef5e
   10680:	dedc                	.2byte	0xdedc
   10682:	e71d298f          	.4byte	0xe71d298f
   10686:	ef7e                	.2byte	0xef7e
   10688:	298f31cf          	.4byte	0x298f31cf
   1068c:	298f298f          	.4byte	0x298f298f
   10690:	298f298f          	.4byte	0x298f298f
   10694:	298f298f          	.4byte	0x298f298f
   10698:	298f298f          	.4byte	0x298f298f
   1069c:	298f298f          	.4byte	0x298f298f
   106a0:	298f298f          	.4byte	0x298f298f
   106a4:	298f298f          	.4byte	0x298f298f
   106a8:	298f298f          	.4byte	0x298f298f
   106ac:	298f298f          	.4byte	0x298f298f
   106b0:	298f298f          	.4byte	0x298f298f
   106b4:	298f298f          	.4byte	0x298f298f
   106b8:	298f298f          	.4byte	0x298f298f
   106bc:	4a70298f          	.4byte	0x4a70298f
   106c0:	ffffce7b          	.4byte	0xffffce7b
   106c4:	ffff                	.2byte	0xffff
   106c6:	ffff                	.2byte	0xffff
   106c8:	ffff                	.2byte	0xffff
   106ca:	ffff                	.2byte	0xffff
   106cc:	ffff                	.2byte	0xffff
   106ce:	ffff                	.2byte	0xffff
   106d0:	ffff                	.2byte	0xffff
   106d2:	e71d                	.2byte	0xe71d
   106d4:	298f298f          	.4byte	0x298f298f
   106d8:	298f298f          	.4byte	0x298f298f
   106dc:	298f298f          	.4byte	0x298f298f
   106e0:	298f298f          	.4byte	0x298f298f
   106e4:	298f298f          	.4byte	0x298f298f
   106e8:	298f298f          	.4byte	0x298f298f
   106ec:	298f298f          	.4byte	0x298f298f
   106f0:	298f298f          	.4byte	0x298f298f
   106f4:	298f298f          	.4byte	0x298f298f
   106f8:	298f298f          	.4byte	0x298f298f
   106fc:	8414298f          	.4byte	0x8414298f
   10700:	ffff                	.2byte	0xffff
   10702:	ffff                	.2byte	0xffff
   10704:	ffff                	.2byte	0xffff
   10706:	ffff                	.2byte	0xffff
   10708:	ffff                	.2byte	0xffff
   1070a:	ffff                	.2byte	0xffff
   1070c:	ffff                	.2byte	0xffff
   1070e:	ffff                	.2byte	0xffff
   10710:	ffff                	.2byte	0xffff
   10712:	ffff                	.2byte	0xffff
   10714:	ffff                	.2byte	0xffff
   10716:	ffff                	.2byte	0xffff
   10718:	9496                	.2byte	0x9496
   1071a:	9496                	.2byte	0x9496
   1071c:	9496                	.2byte	0x9496
   1071e:	9496                	.2byte	0x9496
   10720:	9496                	.2byte	0x9496
   10722:	298f298f          	.4byte	0x298f298f
   10726:	298f298f          	.4byte	0x298f298f
   1072a:	5b12                	.2byte	0x5b12
   1072c:	94b6                	.2byte	0x94b6
   1072e:	3a10                	.2byte	0x3a10
   10730:	3a109cf7          	.4byte	0x3a109cf7
   10734:	298f298f          	.4byte	0x298f298f
   10738:	298f298f          	.4byte	0x298f298f
   1073c:	ef5e31af          	.4byte	0xef5e31af
   10740:	dedc                	.2byte	0xdedc
   10742:	e71d298f          	.4byte	0xe71d298f
   10746:	ef7e                	.2byte	0xef7e
   10748:	298f31cf          	.4byte	0x298f31cf
   1074c:	298f298f          	.4byte	0x298f298f
   10750:	298f298f          	.4byte	0x298f298f
   10754:	298f298f          	.4byte	0x298f298f
   10758:	298f298f          	.4byte	0x298f298f
   1075c:	298f298f          	.4byte	0x298f298f
   10760:	298f298f          	.4byte	0x298f298f
   10764:	298f298f          	.4byte	0x298f298f
   10768:	298f298f          	.4byte	0x298f298f
   1076c:	298f298f          	.4byte	0x298f298f
   10770:	298f298f          	.4byte	0x298f298f
   10774:	298f298f          	.4byte	0x298f298f
   10778:	298f298f          	.4byte	0x298f298f
   1077c:	6332                	.2byte	0x6332
   1077e:	e71d                	.2byte	0xe71d
   10780:	ffff                	.2byte	0xffff
   10782:	ffff                	.2byte	0xffff
   10784:	ffff                	.2byte	0xffff
   10786:	ffff                	.2byte	0xffff
   10788:	ffff                	.2byte	0xffff
   1078a:	ffff                	.2byte	0xffff
   1078c:	ffff                	.2byte	0xffff
   1078e:	ffff                	.2byte	0xffff
   10790:	ffff                	.2byte	0xffff
   10792:	e71d                	.2byte	0xe71d
   10794:	298f298f          	.4byte	0x298f298f
   10798:	298f298f          	.4byte	0x298f298f
   1079c:	298f298f          	.4byte	0x298f298f
   107a0:	298f298f          	.4byte	0x298f298f
   107a4:	298f298f          	.4byte	0x298f298f
   107a8:	298f298f          	.4byte	0x298f298f
   107ac:	298f298f          	.4byte	0x298f298f
   107b0:	298f298f          	.4byte	0x298f298f
   107b4:	298f298f          	.4byte	0x298f298f
   107b8:	298f298f          	.4byte	0x298f298f
   107bc:	8414298f          	.4byte	0x8414298f
   107c0:	ffff                	.2byte	0xffff
   107c2:	ffff                	.2byte	0xffff
   107c4:	ffff                	.2byte	0xffff
   107c6:	ffff                	.2byte	0xffff
   107c8:	ffff                	.2byte	0xffff
   107ca:	ffff                	.2byte	0xffff
   107cc:	ffff                	.2byte	0xffff
   107ce:	ffff                	.2byte	0xffff
   107d0:	ffff                	.2byte	0xffff
   107d2:	ffff                	.2byte	0xffff
   107d4:	ffff                	.2byte	0xffff
   107d6:	ffff                	.2byte	0xffff
   107d8:	9496                	.2byte	0x9496
   107da:	9496                	.2byte	0x9496
   107dc:	9496                	.2byte	0x9496
   107de:	9496                	.2byte	0x9496
   107e0:	9496                	.2byte	0x9496
   107e2:	298f298f          	.4byte	0x298f298f
   107e6:	298f298f          	.4byte	0x298f298f
   107ea:	31af298f          	.4byte	0x31af298f
   107ee:	298f39ef          	jal	s3,103a86 <riscv_96x64_map+0xf3a2e>
   107f2:	298f298f          	.4byte	0x298f298f
   107f6:	298f298f          	.4byte	0x298f298f
   107fa:	31af298f          	.4byte	0x31af298f
   107fe:	ef5e                	.2byte	0xef5e
   10800:	dedc                	.2byte	0xdedc
   10802:	e71d298f          	.4byte	0xe71d298f
   10806:	ef7e                	.2byte	0xef7e
   10808:	298f31cf          	.4byte	0x298f31cf
   1080c:	298f298f          	.4byte	0x298f298f
   10810:	298f298f          	.4byte	0x298f298f
   10814:	298f298f          	.4byte	0x298f298f
   10818:	298f298f          	.4byte	0x298f298f
   1081c:	298f298f          	.4byte	0x298f298f
   10820:	298f298f          	.4byte	0x298f298f
   10824:	298f298f          	.4byte	0x298f298f
   10828:	298f298f          	.4byte	0x298f298f
   1082c:	298f298f          	.4byte	0x298f298f
   10830:	298f298f          	.4byte	0x298f298f
   10834:	298f298f          	.4byte	0x298f298f
   10838:	8414298f          	.4byte	0x8414298f
   1083c:	f77e                	.2byte	0xf77e
   1083e:	ffff                	.2byte	0xffff
   10840:	ffff                	.2byte	0xffff
   10842:	ffff                	.2byte	0xffff
   10844:	ffff                	.2byte	0xffff
   10846:	ffff                	.2byte	0xffff
   10848:	ffff                	.2byte	0xffff
   1084a:	ffff                	.2byte	0xffff
   1084c:	ffff                	.2byte	0xffff
   1084e:	ffff                	.2byte	0xffff
   10850:	ffff                	.2byte	0xffff
   10852:	e71d                	.2byte	0xe71d
   10854:	298f298f          	.4byte	0x298f298f
   10858:	298f298f          	.4byte	0x298f298f
   1085c:	298f298f          	.4byte	0x298f298f
   10860:	298f298f          	.4byte	0x298f298f
   10864:	298f298f          	.4byte	0x298f298f
   10868:	298f298f          	.4byte	0x298f298f
   1086c:	298f298f          	.4byte	0x298f298f
   10870:	298f298f          	.4byte	0x298f298f
   10874:	298f298f          	.4byte	0x298f298f
   10878:	298f298f          	.4byte	0x298f298f
   1087c:	8414298f          	.4byte	0x8414298f
   10880:	ffff                	.2byte	0xffff
   10882:	ffff                	.2byte	0xffff
   10884:	ffff                	.2byte	0xffff
   10886:	ffff                	.2byte	0xffff
   10888:	ffff                	.2byte	0xffff
   1088a:	ffff                	.2byte	0xffff
   1088c:	ffff                	.2byte	0xffff
   1088e:	ffff                	.2byte	0xffff
   10890:	ffff                	.2byte	0xffff
   10892:	ffff                	.2byte	0xffff
   10894:	ffff                	.2byte	0xffff
   10896:	ffff                	.2byte	0xffff
   10898:	9496                	.2byte	0x9496
   1089a:	9496                	.2byte	0x9496
   1089c:	9496                	.2byte	0x9496
   1089e:	9496                	.2byte	0x9496
   108a0:	9496                	.2byte	0x9496
   108a2:	298f298f          	.4byte	0x298f298f
   108a6:	298f298f          	.4byte	0x298f298f
   108aa:	8414                	.2byte	0x8414
   108ac:	c63a                	.2byte	0xc63a
   108ae:	c61a                	.2byte	0xc61a
   108b0:	bdd9                	.2byte	0xbdd9
   108b2:	4a70                	.2byte	0x4a70
   108b4:	298f298f          	.4byte	0x298f298f
   108b8:	298f298f          	.4byte	0x298f298f
   108bc:	ef7e31ef          	jal	gp,ffff47b2 <IO_BASE+0xffbf47b2>
   108c0:	dedc                	.2byte	0xdedc
   108c2:	e71d298f          	.4byte	0xe71d298f
   108c6:	ef7e                	.2byte	0xef7e
   108c8:	298f31cf          	.4byte	0x298f31cf
   108cc:	298f298f          	.4byte	0x298f298f
   108d0:	298f298f          	.4byte	0x298f298f
   108d4:	298f298f          	.4byte	0x298f298f
   108d8:	298f298f          	.4byte	0x298f298f
   108dc:	298f298f          	.4byte	0x298f298f
   108e0:	298f298f          	.4byte	0x298f298f
   108e4:	298f298f          	.4byte	0x298f298f
   108e8:	298f298f          	.4byte	0x298f298f
   108ec:	298f298f          	.4byte	0x298f298f
   108f0:	298f298f          	.4byte	0x298f298f
   108f4:	29af298f          	.4byte	0x29af298f
   108f8:	ffbf9cf7          	.4byte	0xffbf9cf7
   108fc:	ffff                	.2byte	0xffff
   108fe:	ffff                	.2byte	0xffff
   10900:	ffff                	.2byte	0xffff
   10902:	ffff                	.2byte	0xffff
   10904:	ffff                	.2byte	0xffff
   10906:	ffff                	.2byte	0xffff
   10908:	ffff                	.2byte	0xffff
   1090a:	ffff                	.2byte	0xffff
   1090c:	ffff                	.2byte	0xffff
   1090e:	ffff                	.2byte	0xffff
   10910:	ffff                	.2byte	0xffff
   10912:	e71d                	.2byte	0xe71d
   10914:	298f298f          	.4byte	0x298f298f
   10918:	298f298f          	.4byte	0x298f298f
   1091c:	298f298f          	.4byte	0x298f298f
   10920:	298f298f          	.4byte	0x298f298f
   10924:	298f298f          	.4byte	0x298f298f
   10928:	298f298f          	.4byte	0x298f298f
   1092c:	298f298f          	.4byte	0x298f298f
   10930:	298f298f          	.4byte	0x298f298f
   10934:	298f298f          	.4byte	0x298f298f
   10938:	298f298f          	.4byte	0x298f298f
   1093c:	8414298f          	.4byte	0x8414298f
   10940:	ffff                	.2byte	0xffff
   10942:	ffff                	.2byte	0xffff
   10944:	ffff                	.2byte	0xffff
   10946:	ffff                	.2byte	0xffff
   10948:	ffff                	.2byte	0xffff
   1094a:	ffff                	.2byte	0xffff
   1094c:	ffff                	.2byte	0xffff
   1094e:	ffff                	.2byte	0xffff
   10950:	ffff                	.2byte	0xffff
   10952:	ffff                	.2byte	0xffff
   10954:	ffff                	.2byte	0xffff
   10956:	ffff                	.2byte	0xffff
   10958:	9496                	.2byte	0x9496
   1095a:	9496                	.2byte	0x9496
   1095c:	9496                	.2byte	0x9496
   1095e:	9496                	.2byte	0x9496
   10960:	9496                	.2byte	0x9496
   10962:	298f298f          	.4byte	0x298f298f
   10966:	3a30298f          	.4byte	0x3a30298f
   1096a:	c61a                	.2byte	0xc61a
   1096c:	4250                	.2byte	0x4250
   1096e:	8414298f          	.4byte	0x8414298f
   10972:	ad58                	.2byte	0xad58
   10974:	298f298f          	.4byte	0x298f298f
   10978:	4a91298f          	.4byte	0x4a91298f
   1097c:	ffffce5b          	.4byte	0xffffce5b
   10980:	dedc                	.2byte	0xdedc
   10982:	e71d298f          	.4byte	0xe71d298f
   10986:	ef7e                	.2byte	0xef7e
   10988:	298f31cf          	.4byte	0x298f31cf
   1098c:	298f298f          	.4byte	0x298f298f
   10990:	298f298f          	.4byte	0x298f298f
   10994:	298f298f          	.4byte	0x298f298f
   10998:	298f298f          	.4byte	0x298f298f
   1099c:	298f298f          	.4byte	0x298f298f
   109a0:	298f298f          	.4byte	0x298f298f
   109a4:	298f298f          	.4byte	0x298f298f
   109a8:	298f298f          	.4byte	0x298f298f
   109ac:	298f298f          	.4byte	0x298f298f
   109b0:	298f298f          	.4byte	0x298f298f
   109b4:	bdd931ef          	jal	gp,fffa4590 <IO_BASE+0xffba4590>
   109b8:	ffff                	.2byte	0xffff
   109ba:	ffff                	.2byte	0xffff
   109bc:	ffff                	.2byte	0xffff
   109be:	ffff                	.2byte	0xffff
   109c0:	ffff                	.2byte	0xffff
   109c2:	ffff                	.2byte	0xffff
   109c4:	ffff                	.2byte	0xffff
   109c6:	ffff                	.2byte	0xffff
   109c8:	ffff                	.2byte	0xffff
   109ca:	ffff                	.2byte	0xffff
   109cc:	ffff                	.2byte	0xffff
   109ce:	ffff                	.2byte	0xffff
   109d0:	ffff                	.2byte	0xffff
   109d2:	e71d                	.2byte	0xe71d
   109d4:	298f298f          	.4byte	0x298f298f
   109d8:	298f298f          	.4byte	0x298f298f
   109dc:	298f298f          	.4byte	0x298f298f
   109e0:	298f298f          	.4byte	0x298f298f
   109e4:	298f298f          	.4byte	0x298f298f
   109e8:	298f298f          	.4byte	0x298f298f
   109ec:	298f298f          	.4byte	0x298f298f
   109f0:	298f298f          	.4byte	0x298f298f
   109f4:	298f298f          	.4byte	0x298f298f
   109f8:	298f298f          	.4byte	0x298f298f
   109fc:	8414298f          	.4byte	0x8414298f
   10a00:	ffff                	.2byte	0xffff
   10a02:	ffff                	.2byte	0xffff
   10a04:	ffff                	.2byte	0xffff
   10a06:	ffff                	.2byte	0xffff
   10a08:	ffff                	.2byte	0xffff
   10a0a:	ffff                	.2byte	0xffff
   10a0c:	ffff                	.2byte	0xffff
   10a0e:	ffff                	.2byte	0xffff
   10a10:	ffff                	.2byte	0xffff
   10a12:	ffff                	.2byte	0xffff
   10a14:	ffff                	.2byte	0xffff
   10a16:	ffff                	.2byte	0xffff
   10a18:	9496                	.2byte	0x9496
   10a1a:	9496                	.2byte	0x9496
   10a1c:	9496                	.2byte	0x9496
   10a1e:	9496                	.2byte	0x9496
   10a20:	9496                	.2byte	0x9496
   10a22:	298f298f          	.4byte	0x298f298f
   10a26:	6312298f          	.4byte	0x6312298f
   10a2a:	ad58                	.2byte	0xad58
   10a2c:	298f298f          	.4byte	0x298f298f
   10a30:	b5d931ef          	jal	gp,fffa458c <IO_BASE+0xffba458c>
   10a34:	298f298f          	.4byte	0x298f298f
   10a38:	7bf4                	.2byte	0x7bf4
   10a3a:	ef3e                	.2byte	0xef3e
   10a3c:	ffff                	.2byte	0xffff
   10a3e:	ffff                	.2byte	0xffff
   10a40:	dedc                	.2byte	0xdedc
   10a42:	e71d298f          	.4byte	0xe71d298f
   10a46:	ef7e                	.2byte	0xef7e
   10a48:	298f31cf          	.4byte	0x298f31cf
   10a4c:	298f298f          	.4byte	0x298f298f
   10a50:	298f298f          	.4byte	0x298f298f
   10a54:	298f298f          	.4byte	0x298f298f
   10a58:	298f298f          	.4byte	0x298f298f
   10a5c:	298f298f          	.4byte	0x298f298f
   10a60:	298f298f          	.4byte	0x298f298f
   10a64:	298f298f          	.4byte	0x298f298f
   10a68:	298f298f          	.4byte	0x298f298f
   10a6c:	298f298f          	.4byte	0x298f298f
   10a70:	4a91298f          	.4byte	0x4a91298f
   10a74:	ffffd69b          	.4byte	0xffffd69b
   10a78:	ffff                	.2byte	0xffff
   10a7a:	ffff                	.2byte	0xffff
   10a7c:	ffff                	.2byte	0xffff
   10a7e:	ffff                	.2byte	0xffff
   10a80:	ffff                	.2byte	0xffff
   10a82:	ffff                	.2byte	0xffff
   10a84:	ffff                	.2byte	0xffff
   10a86:	ffff                	.2byte	0xffff
   10a88:	ffff                	.2byte	0xffff
   10a8a:	ffff                	.2byte	0xffff
   10a8c:	ffff                	.2byte	0xffff
   10a8e:	ffff                	.2byte	0xffff
   10a90:	ffff                	.2byte	0xffff
   10a92:	e71d                	.2byte	0xe71d
   10a94:	298f298f          	.4byte	0x298f298f
   10a98:	298f298f          	.4byte	0x298f298f
   10a9c:	298f298f          	.4byte	0x298f298f
   10aa0:	298f298f          	.4byte	0x298f298f
   10aa4:	298f298f          	.4byte	0x298f298f
   10aa8:	298f298f          	.4byte	0x298f298f
   10aac:	298f298f          	.4byte	0x298f298f
   10ab0:	298f298f          	.4byte	0x298f298f
   10ab4:	298f298f          	.4byte	0x298f298f
   10ab8:	298f298f          	.4byte	0x298f298f
   10abc:	8414298f          	.4byte	0x8414298f
   10ac0:	ffff                	.2byte	0xffff
   10ac2:	ffff                	.2byte	0xffff
   10ac4:	ffff                	.2byte	0xffff
   10ac6:	ffff                	.2byte	0xffff
   10ac8:	ffff                	.2byte	0xffff
   10aca:	ffff                	.2byte	0xffff
   10acc:	ffff                	.2byte	0xffff
   10ace:	ffff                	.2byte	0xffff
   10ad0:	ffff                	.2byte	0xffff
   10ad2:	ffff                	.2byte	0xffff
   10ad4:	ffff                	.2byte	0xffff
   10ad6:	ffff                	.2byte	0xffff
   10ad8:	9496                	.2byte	0x9496
   10ada:	9496                	.2byte	0x9496
   10adc:	9496                	.2byte	0x9496
   10ade:	9496                	.2byte	0x9496
   10ae0:	9496                	.2byte	0x9496
   10ae2:	298f298f          	.4byte	0x298f298f
   10ae6:	4a71298f          	.4byte	0x4a71298f
   10aea:	bdda                	.2byte	0xbdda
   10aec:	298f298f          	.4byte	0x298f298f
   10af0:	5b12                	.2byte	0x5b12
   10af2:	b599                	.2byte	0xb599
   10af4:	4230298f          	.4byte	0x4230298f
   10af8:	ef7e                	.2byte	0xef7e
   10afa:	ffdf ad58 e71d      	.byte	0xdf, 0xff, 0x58, 0xad, 0x1d, 0xe7
   10b00:	c61affbf defdffdf 	.8byte	0xdefdffdfc61affbf
   10b08:	298f29af          	.4byte	0x298f29af
   10b0c:	298f298f          	.4byte	0x298f298f
   10b10:	298f298f          	.4byte	0x298f298f
   10b14:	298f298f          	.4byte	0x298f298f
   10b18:	298f298f          	.4byte	0x298f298f
   10b1c:	298f298f          	.4byte	0x298f298f
   10b20:	298f298f          	.4byte	0x298f298f
   10b24:	298f298f          	.4byte	0x298f298f
   10b28:	298f298f          	.4byte	0x298f298f
   10b2c:	298f298f          	.4byte	0x298f298f
   10b30:	6352                	.2byte	0x6352
   10b32:	e71d                	.2byte	0xe71d
   10b34:	ffff                	.2byte	0xffff
   10b36:	ffff                	.2byte	0xffff
   10b38:	ffff                	.2byte	0xffff
   10b3a:	ffff                	.2byte	0xffff
   10b3c:	ffff                	.2byte	0xffff
   10b3e:	ffff                	.2byte	0xffff
   10b40:	ffff                	.2byte	0xffff
   10b42:	ffff                	.2byte	0xffff
   10b44:	ffff                	.2byte	0xffff
   10b46:	ffff                	.2byte	0xffff
   10b48:	ffff                	.2byte	0xffff
   10b4a:	ffff                	.2byte	0xffff
   10b4c:	ffff                	.2byte	0xffff
   10b4e:	ffff                	.2byte	0xffff
   10b50:	ffff                	.2byte	0xffff
   10b52:	e71d                	.2byte	0xe71d
   10b54:	298f298f          	.4byte	0x298f298f
   10b58:	298f298f          	.4byte	0x298f298f
   10b5c:	298f298f          	.4byte	0x298f298f
   10b60:	298f298f          	.4byte	0x298f298f
   10b64:	298f298f          	.4byte	0x298f298f
   10b68:	298f298f          	.4byte	0x298f298f
   10b6c:	298f298f          	.4byte	0x298f298f
   10b70:	298f298f          	.4byte	0x298f298f
   10b74:	298f298f          	.4byte	0x298f298f
   10b78:	298f298f          	.4byte	0x298f298f
   10b7c:	8414298f          	.4byte	0x8414298f
   10b80:	ffff                	.2byte	0xffff
   10b82:	ffff                	.2byte	0xffff
   10b84:	ffff                	.2byte	0xffff
   10b86:	ffff                	.2byte	0xffff
   10b88:	ffff                	.2byte	0xffff
   10b8a:	ffff                	.2byte	0xffff
   10b8c:	ffff                	.2byte	0xffff
   10b8e:	ffff                	.2byte	0xffff
   10b90:	ffff                	.2byte	0xffff
   10b92:	ffff                	.2byte	0xffff
   10b94:	ffff                	.2byte	0xffff
   10b96:	ffff                	.2byte	0xffff
   10b98:	9496                	.2byte	0x9496
   10b9a:	9496                	.2byte	0x9496
   10b9c:	9496                	.2byte	0x9496
   10b9e:	9496                	.2byte	0x9496
   10ba0:	9496                	.2byte	0x9496
   10ba2:	298f298f          	.4byte	0x298f298f
   10ba6:	298f298f          	.4byte	0x298f298f
   10baa:	c61aa517          	auipc	a0,0xc61aa
   10bae:	b599                	.2byte	0xb599
   10bb0:	6b52ce5b          	.4byte	0x6b52ce5b
   10bb4:	4250298f          	.4byte	0x4250298f
   10bb8:	d69c                	.2byte	0xd69c
   10bba:	7bd4                	.2byte	0x7bd4
   10bbc:	7c14298f          	.4byte	0x7c14298f
   10bc0:	f77e                	.2byte	0xf77e
   10bc2:	ffff                	.2byte	0xffff
   10bc4:	f79e                	.2byte	0xf79e
   10bc6:	8414                	.2byte	0x8414
   10bc8:	298f298f          	.4byte	0x298f298f
   10bcc:	298f298f          	.4byte	0x298f298f
   10bd0:	298f298f          	.4byte	0x298f298f
   10bd4:	298f298f          	.4byte	0x298f298f
   10bd8:	298f298f          	.4byte	0x298f298f
   10bdc:	298f298f          	.4byte	0x298f298f
   10be0:	298f298f          	.4byte	0x298f298f
   10be4:	298f298f          	.4byte	0x298f298f
   10be8:	298f298f          	.4byte	0x298f298f
   10bec:	8435298f          	.4byte	0x8435298f
   10bf0:	f79e                	.2byte	0xf79e
   10bf2:	ffff                	.2byte	0xffff
   10bf4:	ffff                	.2byte	0xffff
   10bf6:	ffff                	.2byte	0xffff
   10bf8:	ffff                	.2byte	0xffff
   10bfa:	ffff                	.2byte	0xffff
   10bfc:	ffff                	.2byte	0xffff
   10bfe:	ffff                	.2byte	0xffff
   10c00:	ffff                	.2byte	0xffff
   10c02:	ffff                	.2byte	0xffff
   10c04:	ffff                	.2byte	0xffff
   10c06:	ffff                	.2byte	0xffff
   10c08:	ffff                	.2byte	0xffff
   10c0a:	ffff                	.2byte	0xffff
   10c0c:	ffff                	.2byte	0xffff
   10c0e:	ffff                	.2byte	0xffff
   10c10:	ffff                	.2byte	0xffff
   10c12:	e71d                	.2byte	0xe71d
   10c14:	298f29af          	.4byte	0x298f29af
   10c18:	298f298f          	.4byte	0x298f298f
   10c1c:	298f298f          	.4byte	0x298f298f
   10c20:	298f298f          	.4byte	0x298f298f
   10c24:	298f298f          	.4byte	0x298f298f
   10c28:	298f298f          	.4byte	0x298f298f
   10c2c:	298f298f          	.4byte	0x298f298f
   10c30:	298f298f          	.4byte	0x298f298f
   10c34:	298f298f          	.4byte	0x298f298f
   10c38:	298f298f          	.4byte	0x298f298f
   10c3c:	8414298f          	.4byte	0x8414298f
   10c40:	ffff                	.2byte	0xffff
   10c42:	ffff                	.2byte	0xffff
   10c44:	ffff                	.2byte	0xffff
   10c46:	ffff                	.2byte	0xffff
   10c48:	ffff                	.2byte	0xffff
   10c4a:	ffff                	.2byte	0xffff
   10c4c:	ffff                	.2byte	0xffff
   10c4e:	ffff                	.2byte	0xffff
   10c50:	ffff                	.2byte	0xffff
   10c52:	ffff                	.2byte	0xffff
   10c54:	ffff                	.2byte	0xffff
   10c56:	ffff                	.2byte	0xffff
   10c58:	9496                	.2byte	0x9496
   10c5a:	9496                	.2byte	0x9496
   10c5c:	9496                	.2byte	0x9496
   10c5e:	9496                	.2byte	0x9496
   10c60:	9496                	.2byte	0x9496
   10c62:	298f298f          	.4byte	0x298f298f
   10c66:	298f298f          	.4byte	0x298f298f
   10c6a:	52d1298f          	.4byte	0x52d1298f
   10c6e:	42306b93          	ori	s7,zero,1059
   10c72:	298f298f          	.4byte	0x298f298f
   10c76:	3a1029af          	.4byte	0x3a1029af
   10c7a:	298f298f          	.4byte	0x298f298f
   10c7e:	4a91298f          	.4byte	0x4a91298f
   10c82:	7bd4                	.2byte	0x7bd4
   10c84:	4a91                	.2byte	0x4a91
   10c86:	298f298f          	.4byte	0x298f298f
   10c8a:	298f298f          	.4byte	0x298f298f
   10c8e:	298f298f          	.4byte	0x298f298f
   10c92:	298f298f          	.4byte	0x298f298f
   10c96:	298f298f          	.4byte	0x298f298f
   10c9a:	298f298f          	.4byte	0x298f298f
   10c9e:	298f298f          	.4byte	0x298f298f
   10ca2:	298f298f          	.4byte	0x298f298f
   10ca6:	298f298f          	.4byte	0x298f298f
   10caa:	a51731af          	.4byte	0xa51731af
   10cae:	ffdf ffff ffff      	.byte	0xdf, 0xff, 0xff, 0xff, 0xff, 0xff
   10cb4:	ffff                	.2byte	0xffff
   10cb6:	ffff                	.2byte	0xffff
   10cb8:	ffff                	.2byte	0xffff
   10cba:	ffff                	.2byte	0xffff
   10cbc:	ffff                	.2byte	0xffff
   10cbe:	ffff                	.2byte	0xffff
   10cc0:	ffff                	.2byte	0xffff
   10cc2:	ffff                	.2byte	0xffff
   10cc4:	ffff                	.2byte	0xffff
   10cc6:	ffff                	.2byte	0xffff
   10cc8:	ffff                	.2byte	0xffff
   10cca:	ffff                	.2byte	0xffff
   10ccc:	ffff                	.2byte	0xffff
   10cce:	ffff                	.2byte	0xffff
   10cd0:	ffff                	.2byte	0xffff
   10cd2:	ef5e                	.2byte	0xef5e
   10cd4:	298f31cf          	.4byte	0x298f31cf
   10cd8:	298f298f          	.4byte	0x298f298f
   10cdc:	298f298f          	.4byte	0x298f298f
   10ce0:	298f298f          	.4byte	0x298f298f
   10ce4:	298f298f          	.4byte	0x298f298f
   10ce8:	298f298f          	.4byte	0x298f298f
   10cec:	298f298f          	.4byte	0x298f298f
   10cf0:	298f298f          	.4byte	0x298f298f
   10cf4:	298f298f          	.4byte	0x298f298f
   10cf8:	298f298f          	.4byte	0x298f298f
   10cfc:	9496298f          	.4byte	0x9496298f
   10d00:	ffff                	.2byte	0xffff
   10d02:	ffff                	.2byte	0xffff
   10d04:	ffff                	.2byte	0xffff
   10d06:	ffff                	.2byte	0xffff
   10d08:	ffff                	.2byte	0xffff
   10d0a:	ffff                	.2byte	0xffff
   10d0c:	ffff                	.2byte	0xffff
   10d0e:	ffff                	.2byte	0xffff
   10d10:	ffff                	.2byte	0xffff
   10d12:	ffff                	.2byte	0xffff
   10d14:	ffff                	.2byte	0xffff
   10d16:	ffff                	.2byte	0xffff
   10d18:	9496                	.2byte	0x9496
   10d1a:	9496                	.2byte	0x9496
   10d1c:	9496                	.2byte	0x9496
   10d1e:	9496                	.2byte	0x9496
   10d20:	9496                	.2byte	0x9496
   10d22:	298f298f          	.4byte	0x298f298f
   10d26:	29af298f          	.4byte	0x29af298f
   10d2a:	6332                	.2byte	0x6332
   10d2c:	6352                	.2byte	0x6352
   10d2e:	6352                	.2byte	0x6352
   10d30:	6352                	.2byte	0x6352
   10d32:	52b1                	.2byte	0x52b1
   10d34:	39ef298f          	.4byte	0x39ef298f
   10d38:	b598                	.2byte	0xb598
   10d3a:	bdd9                	.2byte	0xbdd9
   10d3c:	bdd9                	.2byte	0xbdd9
   10d3e:	bdd9                	.2byte	0xbdd9
   10d40:	bdd9                	.2byte	0xbdd9
   10d42:	bdd9                	.2byte	0xbdd9
   10d44:	bdd9                	.2byte	0xbdd9
   10d46:	ad78                	.2byte	0xad78
   10d48:	298f29af          	.4byte	0x298f29af
   10d4c:	298f298f          	.4byte	0x298f298f
   10d50:	298f298f          	.4byte	0x298f298f
   10d54:	298f298f          	.4byte	0x298f298f
   10d58:	298f298f          	.4byte	0x298f298f
   10d5c:	298f298f          	.4byte	0x298f298f
   10d60:	298f298f          	.4byte	0x298f298f
   10d64:	298f298f          	.4byte	0x298f298f
   10d68:	39f0                	.2byte	0x39f0
   10d6a:	bdf9                	.2byte	0xbdf9
   10d6c:	ffff                	.2byte	0xffff
   10d6e:	ffff                	.2byte	0xffff
   10d70:	ffff                	.2byte	0xffff
   10d72:	ffff                	.2byte	0xffff
   10d74:	ffff                	.2byte	0xffff
   10d76:	ffff                	.2byte	0xffff
   10d78:	ffff                	.2byte	0xffff
   10d7a:	ffff                	.2byte	0xffff
   10d7c:	ffff                	.2byte	0xffff
   10d7e:	ffff                	.2byte	0xffff
   10d80:	ffff                	.2byte	0xffff
   10d82:	ffff                	.2byte	0xffff
   10d84:	ffff                	.2byte	0xffff
   10d86:	ffff                	.2byte	0xffff
   10d88:	ffff                	.2byte	0xffff
   10d8a:	ffff                	.2byte	0xffff
   10d8c:	ffff                	.2byte	0xffff
   10d8e:	ffff                	.2byte	0xffff
   10d90:	ffff                	.2byte	0xffff
   10d92:	52b1ffbf 298f298f 	.8byte	0x298f298f52b1ffbf
   10d9a:	298f298f          	.4byte	0x298f298f
   10d9e:	298f298f          	.4byte	0x298f298f
   10da2:	298f298f          	.4byte	0x298f298f
   10da6:	298f298f          	.4byte	0x298f298f
   10daa:	298f298f          	.4byte	0x298f298f
   10dae:	298f298f          	.4byte	0x298f298f
   10db2:	298f298f          	.4byte	0x298f298f
   10db6:	298f298f          	.4byte	0x298f298f
   10dba:	298f298f          	.4byte	0x298f298f
   10dbe:	ad78                	.2byte	0xad78
   10dc0:	ffff                	.2byte	0xffff
   10dc2:	ffff                	.2byte	0xffff
   10dc4:	ffff                	.2byte	0xffff
   10dc6:	ffff                	.2byte	0xffff
   10dc8:	ffff                	.2byte	0xffff
   10dca:	ffff                	.2byte	0xffff
   10dcc:	ffff                	.2byte	0xffff
   10dce:	ffff                	.2byte	0xffff
   10dd0:	ffff                	.2byte	0xffff
   10dd2:	ffff                	.2byte	0xffff
   10dd4:	ffff                	.2byte	0xffff
   10dd6:	ffff                	.2byte	0xffff
   10dd8:	9496                	.2byte	0x9496
   10dda:	9496                	.2byte	0x9496
   10ddc:	9496                	.2byte	0x9496
   10dde:	9496                	.2byte	0x9496
   10de0:	9496                	.2byte	0x9496
   10de2:	298f298f          	.4byte	0x298f298f
   10de6:	39f0298f          	.4byte	0x39f0298f
   10dea:	ad78                	.2byte	0xad78
   10dec:	b5b9                	.2byte	0xb5b9
   10dee:	b5b9                	.2byte	0xb5b9
   10df0:	e71d                	.2byte	0xe71d
   10df2:	bdd9                	.2byte	0xbdd9
   10df4:	4250298f          	.4byte	0x4250298f
   10df8:	ef7e                	.2byte	0xef7e
   10dfa:	ffff                	.2byte	0xffff
   10dfc:	ffff                	.2byte	0xffff
   10dfe:	ffff                	.2byte	0xffff
   10e00:	ffff                	.2byte	0xffff
   10e02:	ffff                	.2byte	0xffff
   10e04:	ffff                	.2byte	0xffff
   10e06:	ef5e                	.2byte	0xef5e
   10e08:	298f31cf          	.4byte	0x298f31cf
   10e0c:	298f298f          	.4byte	0x298f298f
   10e10:	298f298f          	.4byte	0x298f298f
   10e14:	298f298f          	.4byte	0x298f298f
   10e18:	298f298f          	.4byte	0x298f298f
   10e1c:	298f298f          	.4byte	0x298f298f
   10e20:	298f298f          	.4byte	0x298f298f
   10e24:	4a91298f          	.4byte	0x4a91298f
   10e28:	d69c                	.2byte	0xd69c
   10e2a:	ffff                	.2byte	0xffff
   10e2c:	ffff                	.2byte	0xffff
   10e2e:	ffff                	.2byte	0xffff
   10e30:	ffff                	.2byte	0xffff
   10e32:	ffff                	.2byte	0xffff
   10e34:	ffff                	.2byte	0xffff
   10e36:	ffff                	.2byte	0xffff
   10e38:	ffff                	.2byte	0xffff
   10e3a:	ffff                	.2byte	0xffff
   10e3c:	ffff                	.2byte	0xffff
   10e3e:	ffff                	.2byte	0xffff
   10e40:	ffff                	.2byte	0xffff
   10e42:	ffff                	.2byte	0xffff
   10e44:	ffff                	.2byte	0xffff
   10e46:	ffff                	.2byte	0xffff
   10e48:	ffff                	.2byte	0xffff
   10e4a:	ffff                	.2byte	0xffff
   10e4c:	ffff                	.2byte	0xffff
   10e4e:	ffff                	.2byte	0xffff
   10e50:	ffff                	.2byte	0xffff
   10e52:	ffff                	.2byte	0xffff
   10e54:	8455                	.2byte	0x8455
   10e56:	298f298f          	.4byte	0x298f298f
   10e5a:	298f298f          	.4byte	0x298f298f
   10e5e:	298f298f          	.4byte	0x298f298f
   10e62:	298f298f          	.4byte	0x298f298f
   10e66:	298f298f          	.4byte	0x298f298f
   10e6a:	298f298f          	.4byte	0x298f298f
   10e6e:	298f298f          	.4byte	0x298f298f
   10e72:	298f298f          	.4byte	0x298f298f
   10e76:	298f298f          	.4byte	0x298f298f
   10e7a:	298f298f          	.4byte	0x298f298f
   10e7e:	ffffd69b          	.4byte	0xffffd69b
   10e82:	ffff                	.2byte	0xffff
   10e84:	ffff                	.2byte	0xffff
   10e86:	ffff                	.2byte	0xffff
   10e88:	ffff                	.2byte	0xffff
   10e8a:	ffff                	.2byte	0xffff
   10e8c:	ffff                	.2byte	0xffff
   10e8e:	ffff                	.2byte	0xffff
   10e90:	ffff                	.2byte	0xffff
   10e92:	ffff                	.2byte	0xffff
   10e94:	ffff                	.2byte	0xffff
   10e96:	ffff                	.2byte	0xffff
   10e98:	9496                	.2byte	0x9496
   10e9a:	9496                	.2byte	0x9496
   10e9c:	9496                	.2byte	0x9496
   10e9e:	9496                	.2byte	0x9496
   10ea0:	9496                	.2byte	0x9496
   10ea2:	298f298f          	.4byte	0x298f298f
   10ea6:	298f298f          	.4byte	0x298f298f
   10eaa:	4230                	.2byte	0x4230
   10eac:	9cd6                	.2byte	0x9cd6
   10eae:	bdfa                	.2byte	0xbdfa
   10eb0:	94b6                	.2byte	0x94b6
   10eb2:	3a10                	.2byte	0x3a10
   10eb4:	29af298f          	.4byte	0x29af298f
   10eb8:	5af2                	.2byte	0x5af2
   10eba:	6312                	.2byte	0x6312
   10ebc:	6312                	.2byte	0x6312
   10ebe:	6312                	.2byte	0x6312
   10ec0:	6312                	.2byte	0x6312
   10ec2:	6312                	.2byte	0x6312
   10ec4:	6312                	.2byte	0x6312
   10ec6:	5af2                	.2byte	0x5af2
   10ec8:	298f298f          	.4byte	0x298f298f
   10ecc:	298f298f          	.4byte	0x298f298f
   10ed0:	298f298f          	.4byte	0x298f298f
   10ed4:	298f298f          	.4byte	0x298f298f
   10ed8:	298f298f          	.4byte	0x298f298f
   10edc:	298f298f          	.4byte	0x298f298f
   10ee0:	298f298f          	.4byte	0x298f298f
   10ee4:	e73d6b73          	.4byte	0xe73d6b73
   10ee8:	ffff                	.2byte	0xffff
   10eea:	ffff                	.2byte	0xffff
   10eec:	ffff                	.2byte	0xffff
   10eee:	ffff                	.2byte	0xffff
   10ef0:	ffff                	.2byte	0xffff
   10ef2:	ffff                	.2byte	0xffff
   10ef4:	ffff                	.2byte	0xffff
   10ef6:	ffff                	.2byte	0xffff
   10ef8:	ffff                	.2byte	0xffff
   10efa:	ffff                	.2byte	0xffff
   10efc:	ffff                	.2byte	0xffff
   10efe:	ffff                	.2byte	0xffff
   10f00:	ffdd                	.2byte	0xffdd
   10f02:	ff79                	.2byte	0xff79
   10f04:	ffff                	.2byte	0xffff
   10f06:	ffff                	.2byte	0xffff
   10f08:	ffff                	.2byte	0xffff
   10f0a:	ffff                	.2byte	0xffff
   10f0c:	ffff                	.2byte	0xffff
   10f0e:	ffff                	.2byte	0xffff
   10f10:	ffff                	.2byte	0xffff
   10f12:	ffff                	.2byte	0xffff
   10f14:	c61a                	.2byte	0xc61a
   10f16:	298f298f          	.4byte	0x298f298f
   10f1a:	298f298f          	.4byte	0x298f298f
   10f1e:	298f298f          	.4byte	0x298f298f
   10f22:	298f298f          	.4byte	0x298f298f
   10f26:	298f298f          	.4byte	0x298f298f
   10f2a:	298f298f          	.4byte	0x298f298f
   10f2e:	298f298f          	.4byte	0x298f298f
   10f32:	298f298f          	.4byte	0x298f298f
   10f36:	298f298f          	.4byte	0x298f298f
   10f3a:	4a91298f          	.4byte	0x4a91298f
   10f3e:	f79f ffff ffff      	.byte	0x9f, 0xf7, 0xff, 0xff, 0xff, 0xff
   10f44:	ffff                	.2byte	0xffff
   10f46:	ffff                	.2byte	0xffff
   10f48:	ffff                	.2byte	0xffff
   10f4a:	ffff                	.2byte	0xffff
   10f4c:	ffff                	.2byte	0xffff
   10f4e:	ffff                	.2byte	0xffff
   10f50:	ffdc                	.2byte	0xffdc
   10f52:	ffff                	.2byte	0xffff
   10f54:	ffff                	.2byte	0xffff
   10f56:	ffff                	.2byte	0xffff
   10f58:	9496                	.2byte	0x9496
   10f5a:	9496                	.2byte	0x9496
   10f5c:	9496                	.2byte	0x9496
   10f5e:	9496                	.2byte	0x9496
   10f60:	9496                	.2byte	0x9496
   10f62:	298f298f          	.4byte	0x298f298f
   10f66:	3a10298f          	.4byte	0x3a10298f
   10f6a:	debc                	.2byte	0xdebc
   10f6c:	39ef9cd7          	.4byte	0x39ef9cd7
   10f70:	298f298f          	.4byte	0x298f298f
   10f74:	39f0298f          	.4byte	0x39f0298f
   10f78:	bdd9                	.2byte	0xbdd9
   10f7a:	ad58                	.2byte	0xad58
   10f7c:	31cf298f          	.4byte	0x31cf298f
   10f80:	9cd6                	.2byte	0x9cd6
   10f82:	c61a                	.2byte	0xc61a
   10f84:	9cd6                	.2byte	0x9cd6
   10f86:	298f31cf          	.4byte	0x298f31cf
   10f8a:	298f298f          	.4byte	0x298f298f
   10f8e:	298f298f          	.4byte	0x298f298f
   10f92:	298f298f          	.4byte	0x298f298f
   10f96:	298f298f          	.4byte	0x298f298f
   10f9a:	298f298f          	.4byte	0x298f298f
   10f9e:	298f298f          	.4byte	0x298f298f
   10fa2:	8c75                	.2byte	0x8c75
   10fa4:	f79f ffff ffff      	.byte	0x9f, 0xf7, 0xff, 0xff, 0xff, 0xff
   10faa:	ffff                	.2byte	0xffff
   10fac:	ffff                	.2byte	0xffff
   10fae:	ffff                	.2byte	0xffff
   10fb0:	ffff                	.2byte	0xffff
   10fb2:	ffff                	.2byte	0xffff
   10fb4:	ffff                	.2byte	0xffff
   10fb6:	ffff                	.2byte	0xffff
   10fb8:	ffff                	.2byte	0xffff
   10fba:	ffff                	.2byte	0xffff
   10fbc:	ffff                	.2byte	0xffff
   10fbe:	ffbc                	.2byte	0xffbc
   10fc0:	fecefe8b          	.4byte	0xfecefe8b
   10fc4:	ffff                	.2byte	0xffff
   10fc6:	ffff                	.2byte	0xffff
   10fc8:	ffff                	.2byte	0xffff
   10fca:	ffff                	.2byte	0xffff
   10fcc:	ffff                	.2byte	0xffff
   10fce:	ffff                	.2byte	0xffff
   10fd0:	ffff                	.2byte	0xffff
   10fd2:	ffff                	.2byte	0xffff
   10fd4:	f79f 52d1 298f      	.byte	0x9f, 0xf7, 0xd1, 0x52, 0x8f, 0x29
   10fda:	298f298f          	.4byte	0x298f298f
   10fde:	298f298f          	.4byte	0x298f298f
   10fe2:	298f298f          	.4byte	0x298f298f
   10fe6:	298f298f          	.4byte	0x298f298f
   10fea:	298f298f          	.4byte	0x298f298f
   10fee:	298f298f          	.4byte	0x298f298f
   10ff2:	298f298f          	.4byte	0x298f298f
   10ff6:	298f298f          	.4byte	0x298f298f
   10ffa:	a517298f          	.4byte	0xa517298f
   10ffe:	ffff                	.2byte	0xffff
   11000:	ffff                	.2byte	0xffff
   11002:	ffff                	.2byte	0xffff
   11004:	ffff                	.2byte	0xffff
   11006:	ffff                	.2byte	0xffff
   11008:	ffff                	.2byte	0xffff
   1100a:	ffff                	.2byte	0xffff
   1100c:	ffff                	.2byte	0xffff
   1100e:	ffff                	.2byte	0xffff
   11010:	ff98                	.2byte	0xff98
   11012:	ffff                	.2byte	0xffff
   11014:	ffff                	.2byte	0xffff
   11016:	ffff                	.2byte	0xffff
   11018:	9496                	.2byte	0x9496
   1101a:	9496                	.2byte	0x9496
   1101c:	9496                	.2byte	0x9496
   1101e:	9496                	.2byte	0x9496
   11020:	9496                	.2byte	0x9496
   11022:	298f298f          	.4byte	0x298f298f
   11026:	298f298f          	.4byte	0x298f298f
   1102a:	73d4                	.2byte	0x73d4
   1102c:	bdd9                	.2byte	0xbdd9
   1102e:	ad58                	.2byte	0xad58
   11030:	52d1                	.2byte	0x52d1
   11032:	298f298f          	.4byte	0x298f298f
   11036:	4250                	.2byte	0x4250
   11038:	f79f dedc 298f      	.byte	0x9f, 0xf7, 0xdc, 0xde, 0x8f, 0x29
   1103e:	ad58                	.2byte	0xad58
   11040:	ffff                	.2byte	0xffff
   11042:	ffff                	.2byte	0xffff
   11044:	ffff                	.2byte	0xffff
   11046:	ad78                	.2byte	0xad78
   11048:	298f298f          	.4byte	0x298f298f
   1104c:	298f298f          	.4byte	0x298f298f
   11050:	298f298f          	.4byte	0x298f298f
   11054:	298f298f          	.4byte	0x298f298f
   11058:	298f298f          	.4byte	0x298f298f
   1105c:	31af298f          	.4byte	0x31af298f
   11060:	a538                	.2byte	0xa538
   11062:	ffdf ffff ffff      	.byte	0xdf, 0xff, 0xff, 0xff, 0xff, 0xff
   11068:	ffff                	.2byte	0xffff
   1106a:	ffff                	.2byte	0xffff
   1106c:	ffff                	.2byte	0xffff
   1106e:	ffff                	.2byte	0xffff
   11070:	ffff                	.2byte	0xffff
   11072:	ffff                	.2byte	0xffff
   11074:	ffff                	.2byte	0xffff
   11076:	ffff                	.2byte	0xffff
   11078:	ffff                	.2byte	0xffff
   1107a:	ffff                	.2byte	0xffff
   1107c:	ff99                	.2byte	0xff99
   1107e:	fe40fe67          	.4byte	0xfe40fe67
   11082:	fe66                	.2byte	0xfe66
   11084:	fffe                	.2byte	0xfffe
   11086:	ffff                	.2byte	0xffff
   11088:	ffff                	.2byte	0xffff
   1108a:	ffff                	.2byte	0xffff
   1108c:	ffff                	.2byte	0xffff
   1108e:	ffff                	.2byte	0xffff
   11090:	ffff                	.2byte	0xffff
   11092:	ffff                	.2byte	0xffff
   11094:	ffff                	.2byte	0xffff
   11096:	c61a                	.2byte	0xc61a
   11098:	298f298f          	.4byte	0x298f298f
   1109c:	298f298f          	.4byte	0x298f298f
   110a0:	298f298f          	.4byte	0x298f298f
   110a4:	298f298f          	.4byte	0x298f298f
   110a8:	298f298f          	.4byte	0x298f298f
   110ac:	298f298f          	.4byte	0x298f298f
   110b0:	298f298f          	.4byte	0x298f298f
   110b4:	298f298f          	.4byte	0x298f298f
   110b8:	4a91298f          	.4byte	0x4a91298f
   110bc:	ef7e                	.2byte	0xef7e
   110be:	ffff                	.2byte	0xffff
   110c0:	ffff                	.2byte	0xffff
   110c2:	ffff                	.2byte	0xffff
   110c4:	ffff                	.2byte	0xffff
   110c6:	ffff                	.2byte	0xffff
   110c8:	ffff                	.2byte	0xffff
   110ca:	ffff                	.2byte	0xffff
   110cc:	ffff                	.2byte	0xffff
   110ce:	ffff                	.2byte	0xffff
   110d0:	ff34                	.2byte	0xff34
   110d2:	ffff                	.2byte	0xffff
   110d4:	ffff                	.2byte	0xffff
   110d6:	ffff                	.2byte	0xffff
   110d8:	9496                	.2byte	0x9496
   110da:	9496                	.2byte	0x9496
   110dc:	9496                	.2byte	0x9496
   110de:	9496                	.2byte	0x9496
   110e0:	9496                	.2byte	0x9496
   110e2:	298f298f          	.4byte	0x298f298f
   110e6:	31cf298f          	.4byte	0x31cf298f
   110ea:	7bd4                	.2byte	0x7bd4
   110ec:	7c14                	.2byte	0x7c14
   110ee:	d6bc9cf7          	.4byte	0xd6bc9cf7
   110f2:	298f9d17          	auipc	s10,0x298f9
   110f6:	4250                	.2byte	0x4250
   110f8:	f79f dedc 298f      	.byte	0x9f, 0xf7, 0xdc, 0xde, 0x8f, 0x29
   110fe:	e71d                	.2byte	0xe71d
   11100:	f79e                	.2byte	0xf79e
   11102:	73d4                	.2byte	0x73d4
   11104:	ef5e                	.2byte	0xef5e
   11106:	ef5e                	.2byte	0xef5e
   11108:	298f31af          	.4byte	0x298f31af
   1110c:	298f298f          	.4byte	0x298f298f
   11110:	298f298f          	.4byte	0x298f298f
   11114:	298f298f          	.4byte	0x298f298f
   11118:	298f298f          	.4byte	0x298f298f
   1111c:	4230                	.2byte	0x4230
   1111e:	c61a                	.2byte	0xc61a
   11120:	ffff                	.2byte	0xffff
   11122:	ffff                	.2byte	0xffff
   11124:	ffff                	.2byte	0xffff
   11126:	ffff                	.2byte	0xffff
   11128:	ffff                	.2byte	0xffff
   1112a:	ffff                	.2byte	0xffff
   1112c:	ffff                	.2byte	0xffff
   1112e:	ffff                	.2byte	0xffff
   11130:	ffff                	.2byte	0xffff
   11132:	ffff                	.2byte	0xffff
   11134:	ffff                	.2byte	0xffff
   11136:	ffff                	.2byte	0xffff
   11138:	ffff                	.2byte	0xffff
   1113a:	ff56                	.2byte	0xff56
   1113c:	fe44                	.2byte	0xfe44
   1113e:	fe40                	.2byte	0xfe40
   11140:	fe40                	.2byte	0xfe40
   11142:	fe40                	.2byte	0xfe40
   11144:	ff99                	.2byte	0xff99
   11146:	ffff                	.2byte	0xffff
   11148:	ffff                	.2byte	0xffff
   1114a:	ffff                	.2byte	0xffff
   1114c:	ffff                	.2byte	0xffff
   1114e:	ffff                	.2byte	0xffff
   11150:	ffff                	.2byte	0xffff
   11152:	ffff                	.2byte	0xffff
   11154:	ffff                	.2byte	0xffff
   11156:	ffff                	.2byte	0xffff
   11158:	9496                	.2byte	0x9496
   1115a:	298f298f          	.4byte	0x298f298f
   1115e:	298f298f          	.4byte	0x298f298f
   11162:	298f298f          	.4byte	0x298f298f
   11166:	298f298f          	.4byte	0x298f298f
   1116a:	298f298f          	.4byte	0x298f298f
   1116e:	298f298f          	.4byte	0x298f298f
   11172:	298f298f          	.4byte	0x298f298f
   11176:	31cf298f          	.4byte	0x31cf298f
   1117a:	ffffce3b          	.4byte	0xffffce3b
   1117e:	ffff                	.2byte	0xffff
   11180:	ffff                	.2byte	0xffff
   11182:	ffff                	.2byte	0xffff
   11184:	ffff                	.2byte	0xffff
   11186:	ffff                	.2byte	0xffff
   11188:	ffff                	.2byte	0xffff
   1118a:	ffff                	.2byte	0xffff
   1118c:	ffff                	.2byte	0xffff
   1118e:	ffdc                	.2byte	0xffdc
   11190:	fef1                	.2byte	0xfef1
   11192:	ffff                	.2byte	0xffff
   11194:	ffff                	.2byte	0xffff
   11196:	ffff                	.2byte	0xffff
   11198:	9496                	.2byte	0x9496
   1119a:	9496                	.2byte	0x9496
   1119c:	9496                	.2byte	0x9496
   1119e:	9496                	.2byte	0x9496
   111a0:	9496                	.2byte	0x9496
   111a2:	298f298f          	.4byte	0x298f298f
   111a6:	39ef298f          	.4byte	0x39ef298f
   111aa:	ad58a537          	lui	a0,0xad58a
   111ae:	ad58                	.2byte	0xad58
   111b0:	ad58                	.2byte	0xad58
   111b2:	8435                	.2byte	0x8435
   111b4:	4250298f          	.4byte	0x4250298f
   111b8:	f79f dedc 298f      	.byte	0x9f, 0xf7, 0xdc, 0xde, 0x8f, 0x29
   111be:	e73d                	.2byte	0xe73d
   111c0:	e73d                	.2byte	0xe73d
   111c2:	defd29af          	.4byte	0xdefd29af
   111c6:	ef7e                	.2byte	0xef7e
   111c8:	298f31cf          	.4byte	0x298f31cf
   111cc:	298f298f          	.4byte	0x298f298f
   111d0:	298f298f          	.4byte	0x298f298f
   111d4:	298f298f          	.4byte	0x298f298f
   111d8:	52b1298f          	.4byte	0x52b1298f
   111dc:	d6bc                	.2byte	0xd6bc
   111de:	ffff                	.2byte	0xffff
   111e0:	ffff                	.2byte	0xffff
   111e2:	ffff                	.2byte	0xffff
   111e4:	ffff                	.2byte	0xffff
   111e6:	ffff                	.2byte	0xffff
   111e8:	ffff                	.2byte	0xffff
   111ea:	ffff                	.2byte	0xffff
   111ec:	ffff                	.2byte	0xffff
   111ee:	ffff                	.2byte	0xffff
   111f0:	ffff                	.2byte	0xffff
   111f2:	ffff                	.2byte	0xffff
   111f4:	ffff                	.2byte	0xffff
   111f6:	ffff                	.2byte	0xffff
   111f8:	fe42ff13          	andi	t5,t0,-28
   111fc:	fe40                	.2byte	0xfe40
   111fe:	fe40                	.2byte	0xfe40
   11200:	fe40                	.2byte	0xfe40
   11202:	fe40                	.2byte	0xfe40
   11204:	fef1                	.2byte	0xfef1
   11206:	ffff                	.2byte	0xffff
   11208:	ffff                	.2byte	0xffff
   1120a:	ffff                	.2byte	0xffff
   1120c:	ffff                	.2byte	0xffff
   1120e:	ffff                	.2byte	0xffff
   11210:	ffff                	.2byte	0xffff
   11212:	ffff                	.2byte	0xffff
   11214:	ffff                	.2byte	0xffff
   11216:	ffff                	.2byte	0xffff
   11218:	8c55f7bf 298f298f 	.8byte	0x298f298f8c55f7bf
   11220:	298f298f          	.4byte	0x298f298f
   11224:	298f298f          	.4byte	0x298f298f
   11228:	298f298f          	.4byte	0x298f298f
   1122c:	298f298f          	.4byte	0x298f298f
   11230:	298f298f          	.4byte	0x298f298f
   11234:	31cf298f          	.4byte	0x31cf298f
   11238:	b5b9                	.2byte	0xb5b9
   1123a:	ffff                	.2byte	0xffff
   1123c:	ffff                	.2byte	0xffff
   1123e:	ffff                	.2byte	0xffff
   11240:	ffff                	.2byte	0xffff
   11242:	ffff                	.2byte	0xffff
   11244:	ffff                	.2byte	0xffff
   11246:	ffff                	.2byte	0xffff
   11248:	ffff                	.2byte	0xffff
   1124a:	ffff                	.2byte	0xffff
   1124c:	ffff                	.2byte	0xffff
   1124e:	ff56                	.2byte	0xff56
   11250:	fef1                	.2byte	0xfef1
   11252:	ffff                	.2byte	0xffff
   11254:	ffff                	.2byte	0xffff
   11256:	ffff                	.2byte	0xffff
   11258:	9496                	.2byte	0x9496
   1125a:	9496                	.2byte	0x9496
   1125c:	9496                	.2byte	0x9496
   1125e:	9496                	.2byte	0x9496
   11260:	9496                	.2byte	0x9496
   11262:	298f298f          	.4byte	0x298f298f
   11266:	298f298f          	.4byte	0x298f298f
   1126a:	298f298f          	.4byte	0x298f298f
   1126e:	298f298f          	.4byte	0x298f298f
   11272:	298f298f          	.4byte	0x298f298f
   11276:	4250                	.2byte	0x4250
   11278:	f79f dedc 298f      	.byte	0x9f, 0xf7, 0xdc, 0xde, 0x8f, 0x29
   1127e:	e73d                	.2byte	0xe73d
   11280:	e73d                	.2byte	0xe73d
   11282:	defd29af          	.4byte	0xdefd29af
   11286:	ef7e                	.2byte	0xef7e
   11288:	298f31cf          	.4byte	0x298f31cf
   1128c:	298f298f          	.4byte	0x298f298f
   11290:	298f298f          	.4byte	0x298f298f
   11294:	298f298f          	.4byte	0x298f298f
   11298:	ef3e7393          	andi	t2,t3,-269
   1129c:	ffff                	.2byte	0xffff
   1129e:	ffff                	.2byte	0xffff
   112a0:	ffff                	.2byte	0xffff
   112a2:	ffff                	.2byte	0xffff
   112a4:	ffff                	.2byte	0xffff
   112a6:	ffff                	.2byte	0xffff
   112a8:	ffff                	.2byte	0xffff
   112aa:	ffff                	.2byte	0xffff
   112ac:	ffff                	.2byte	0xffff
   112ae:	ffff                	.2byte	0xffff
   112b0:	ffff                	.2byte	0xffff
   112b2:	ffff                	.2byte	0xffff
   112b4:	fffe                	.2byte	0xfffe
   112b6:	fed0                	.2byte	0xfed0
   112b8:	fe40                	.2byte	0xfe40
   112ba:	fe40                	.2byte	0xfe40
   112bc:	fe40                	.2byte	0xfe40
   112be:	fe40                	.2byte	0xfe40
   112c0:	fe40                	.2byte	0xfe40
   112c2:	fe40                	.2byte	0xfe40
   112c4:	fe44                	.2byte	0xfe44
   112c6:	ffdc                	.2byte	0xffdc
   112c8:	ffff                	.2byte	0xffff
   112ca:	ffff                	.2byte	0xffff
   112cc:	ffff                	.2byte	0xffff
   112ce:	ffff                	.2byte	0xffff
   112d0:	ffff                	.2byte	0xffff
   112d2:	ffff                	.2byte	0xffff
   112d4:	ffff                	.2byte	0xffff
   112d6:	ffff                	.2byte	0xffff
   112d8:	ffff                	.2byte	0xffff
   112da:	ffdf ad78 4230      	.byte	0xdf, 0xff, 0x78, 0xad, 0x30, 0x42
   112e0:	298f298f          	.4byte	0x298f298f
   112e4:	298f298f          	.4byte	0x298f298f
   112e8:	298f298f          	.4byte	0x298f298f
   112ec:	298f298f          	.4byte	0x298f298f
   112f0:	298f298f          	.4byte	0x298f298f
   112f4:	52d1                	.2byte	0x52d1
   112f6:	ffffce5b          	.4byte	0xffffce5b
   112fa:	ffff                	.2byte	0xffff
   112fc:	ffff                	.2byte	0xffff
   112fe:	ffff                	.2byte	0xffff
   11300:	ffff                	.2byte	0xffff
   11302:	ffff                	.2byte	0xffff
   11304:	ffff                	.2byte	0xffff
   11306:	ffff                	.2byte	0xffff
   11308:	ffff                	.2byte	0xffff
   1130a:	ffff                	.2byte	0xffff
   1130c:	ffff                	.2byte	0xffff
   1130e:	feac                	.2byte	0xfeac
   11310:	fef1                	.2byte	0xfef1
   11312:	ffff                	.2byte	0xffff
   11314:	ffff                	.2byte	0xffff
   11316:	ffff                	.2byte	0xffff
   11318:	9496                	.2byte	0x9496
   1131a:	9496                	.2byte	0x9496
   1131c:	9496                	.2byte	0x9496
   1131e:	9496                	.2byte	0x9496
   11320:	9496                	.2byte	0x9496
   11322:	298f298f          	.4byte	0x298f298f
   11326:	3a10298f          	.4byte	0x3a10298f
   1132a:	b599                	.2byte	0xb599
   1132c:	bdfa                	.2byte	0xbdfa
   1132e:	bdfa                	.2byte	0xbdfa
   11330:	bdd9                	.2byte	0xbdd9
   11332:	94d6                	.2byte	0x94d6
   11334:	4250298f          	.4byte	0x4250298f
   11338:	f79f dedc 298f      	.byte	0x9f, 0xf7, 0xdc, 0xde, 0x8f, 0x29
   1133e:	e73d                	.2byte	0xe73d
   11340:	e73d                	.2byte	0xe73d
   11342:	defd298f          	.4byte	0xdefd298f
   11346:	ef7e                	.2byte	0xef7e
   11348:	298f31cf          	.4byte	0x298f31cf
   1134c:	298f298f          	.4byte	0x298f298f
   11350:	298f298f          	.4byte	0x298f298f
   11354:	8c75298f          	.4byte	0x8c75298f
   11358:	f79f ffff ffff      	.byte	0x9f, 0xf7, 0xff, 0xff, 0xff, 0xff
   1135e:	ffff                	.2byte	0xffff
   11360:	ffff                	.2byte	0xffff
   11362:	ffff                	.2byte	0xffff
   11364:	ffff                	.2byte	0xffff
   11366:	ffff                	.2byte	0xffff
   11368:	ffff                	.2byte	0xffff
   1136a:	ffff                	.2byte	0xffff
   1136c:	ffff                	.2byte	0xffff
   1136e:	ffff                	.2byte	0xffff
   11370:	ffff                	.2byte	0xffff
   11372:	ffdc                	.2byte	0xffdc
   11374:	feac                	.2byte	0xfeac
   11376:	fe40                	.2byte	0xfe40
   11378:	fe40                	.2byte	0xfe40
   1137a:	fe40                	.2byte	0xfe40
   1137c:	fe40                	.2byte	0xfe40
   1137e:	fe40                	.2byte	0xfe40
   11380:	fe40                	.2byte	0xfe40
   11382:	fe40                	.2byte	0xfe40
   11384:	fe40                	.2byte	0xfe40
   11386:	ffffff13          	andi	t5,t6,-1
   1138a:	ffff                	.2byte	0xffff
   1138c:	ffff                	.2byte	0xffff
   1138e:	ffff                	.2byte	0xffff
   11390:	ffff                	.2byte	0xffff
   11392:	ffff                	.2byte	0xffff
   11394:	ffff                	.2byte	0xffff
   11396:	ffff                	.2byte	0xffff
   11398:	ffff                	.2byte	0xffff
   1139a:	ffff                	.2byte	0xffff
   1139c:	ffff                	.2byte	0xffff
   1139e:	e73d                	.2byte	0xe73d
   113a0:	52b1a517          	auipc	a0,0x52b1a
   113a4:	298f29af          	.4byte	0x298f29af
   113a8:	298f298f          	.4byte	0x298f298f
   113ac:	29af298f          	.4byte	0x29af298f
   113b0:	6312                	.2byte	0x6312
   113b2:	b599                	.2byte	0xb599
   113b4:	f79e                	.2byte	0xf79e
   113b6:	ffff                	.2byte	0xffff
   113b8:	ffff                	.2byte	0xffff
   113ba:	ffff                	.2byte	0xffff
   113bc:	ffff                	.2byte	0xffff
   113be:	ffff                	.2byte	0xffff
   113c0:	ffff                	.2byte	0xffff
   113c2:	ffff                	.2byte	0xffff
   113c4:	ffff                	.2byte	0xffff
   113c6:	ffff                	.2byte	0xffff
   113c8:	ffff                	.2byte	0xffff
   113ca:	ffff                	.2byte	0xffff
   113cc:	ff99                	.2byte	0xff99
   113ce:	fe40                	.2byte	0xfe40
   113d0:	fef1                	.2byte	0xfef1
   113d2:	ffff                	.2byte	0xffff
   113d4:	ffff                	.2byte	0xffff
   113d6:	ffff                	.2byte	0xffff
   113d8:	9496                	.2byte	0x9496
   113da:	9496                	.2byte	0x9496
   113dc:	9496                	.2byte	0x9496
   113de:	9496                	.2byte	0x9496
   113e0:	9496                	.2byte	0x9496
   113e2:	298f298f          	.4byte	0x298f298f
   113e6:	29af298f          	.4byte	0x29af298f
   113ea:	52b1                	.2byte	0x52b1
   113ec:	8414                	.2byte	0x8414
   113ee:	ad78                	.2byte	0xad78
   113f0:	6332                	.2byte	0x6332
   113f2:	b5b9                	.2byte	0xb5b9
   113f4:	4250298f          	.4byte	0x4250298f
   113f8:	f79f dedc 298f      	.byte	0x9f, 0xf7, 0xdc, 0xde, 0x8f, 0x29
   113fe:	e73d                	.2byte	0xe73d
   11400:	e71d                	.2byte	0xe71d
   11402:	defd298f          	.4byte	0xdefd298f
   11406:	ef7e                	.2byte	0xef7e
   11408:	298f31cf          	.4byte	0x298f31cf
   1140c:	298f298f          	.4byte	0x298f298f
   11410:	31cf298f          	.4byte	0x31cf298f
   11414:	ad58                	.2byte	0xad58
   11416:	ffdf ffff ffff      	.byte	0xdf, 0xff, 0xff, 0xff, 0xff, 0xff
   1141c:	ffff                	.2byte	0xffff
   1141e:	ffff                	.2byte	0xffff
   11420:	ffff                	.2byte	0xffff
   11422:	ffff                	.2byte	0xffff
   11424:	ffff                	.2byte	0xffff
   11426:	ffff                	.2byte	0xffff
   11428:	ffff                	.2byte	0xffff
   1142a:	ffff                	.2byte	0xffff
   1142c:	ffff                	.2byte	0xffff
   1142e:	ffff                	.2byte	0xffff
   11430:	ff9a                	.2byte	0xff9a
   11432:	fe69                	.2byte	0xfe69
   11434:	fe40                	.2byte	0xfe40
   11436:	fe40                	.2byte	0xfe40
   11438:	fe40                	.2byte	0xfe40
   1143a:	fe40                	.2byte	0xfe40
   1143c:	fe40                	.2byte	0xfe40
   1143e:	fe40                	.2byte	0xfe40
   11440:	fe40                	.2byte	0xfe40
   11442:	fe40                	.2byte	0xfe40
   11444:	fe40                	.2byte	0xfe40
   11446:	fe45                	.2byte	0xfe45
   11448:	ffbc                	.2byte	0xffbc
   1144a:	ffff                	.2byte	0xffff
   1144c:	ffff                	.2byte	0xffff
   1144e:	ffff                	.2byte	0xffff
   11450:	ffff                	.2byte	0xffff
   11452:	ffff                	.2byte	0xffff
   11454:	ffff                	.2byte	0xffff
   11456:	ffff                	.2byte	0xffff
   11458:	ffff                	.2byte	0xffff
   1145a:	ffff                	.2byte	0xffff
   1145c:	ffff                	.2byte	0xffff
   1145e:	ffff                	.2byte	0xffff
   11460:	ffff                	.2byte	0xffff
   11462:	ffdf e6fd ce3b      	.byte	0xdf, 0xff, 0xfd, 0xe6, 0x3b, 0xce
   11468:	bdd9                	.2byte	0xbdd9
   1146a:	bdf9                	.2byte	0xbdf9
   1146c:	e73dce5b          	.4byte	0xe73dce5b
   11470:	ffdf ffff ffff      	.byte	0xdf, 0xff, 0xff, 0xff, 0xff, 0xff
   11476:	ffff                	.2byte	0xffff
   11478:	ffff                	.2byte	0xffff
   1147a:	ffff                	.2byte	0xffff
   1147c:	ffff                	.2byte	0xffff
   1147e:	ffff                	.2byte	0xffff
   11480:	ffff                	.2byte	0xffff
   11482:	ffff                	.2byte	0xffff
   11484:	ffff                	.2byte	0xffff
   11486:	ffff                	.2byte	0xffff
   11488:	ffff                	.2byte	0xffff
   1148a:	ffff                	.2byte	0xffff
   1148c:	fe8c                	.2byte	0xfe8c
   1148e:	fe40                	.2byte	0xfe40
   11490:	fef1                	.2byte	0xfef1
   11492:	ffff                	.2byte	0xffff
   11494:	ffff                	.2byte	0xffff
   11496:	ffff                	.2byte	0xffff
   11498:	9496                	.2byte	0x9496
   1149a:	9496                	.2byte	0x9496
   1149c:	9496                	.2byte	0x9496
   1149e:	9496                	.2byte	0x9496
   114a0:	9496                	.2byte	0x9496
   114a2:	298f298f          	.4byte	0x298f298f
   114a6:	298f298f          	.4byte	0x298f298f
   114aa:	7393298f          	.4byte	0x7393298f
   114ae:	4270a537          	lui	a0,0x4270a
   114b2:	b599                	.2byte	0xb599
   114b4:	4250298f          	.4byte	0x4250298f
   114b8:	f79f dedc 298f      	.byte	0x9f, 0xf7, 0xdc, 0xde, 0x8f, 0x29
   114be:	e73d                	.2byte	0xe73d
   114c0:	e71d                	.2byte	0xe71d
   114c2:	defd298f          	.4byte	0xdefd298f
   114c6:	ef7e                	.2byte	0xef7e
   114c8:	298f31cf          	.4byte	0x298f31cf
   114cc:	298f298f          	.4byte	0x298f298f
   114d0:	94b6298f          	.4byte	0x94b6298f
   114d4:	ffff                	.2byte	0xffff
   114d6:	ffff                	.2byte	0xffff
   114d8:	ffff                	.2byte	0xffff
   114da:	ffff                	.2byte	0xffff
   114dc:	ffff                	.2byte	0xffff
   114de:	ffff                	.2byte	0xffff
   114e0:	ffff                	.2byte	0xffff
   114e2:	ffff                	.2byte	0xffff
   114e4:	ffff                	.2byte	0xffff
   114e6:	ffff                	.2byte	0xffff
   114e8:	ffff                	.2byte	0xffff
   114ea:	ffff                	.2byte	0xffff
   114ec:	ffff                	.2byte	0xffff
   114ee:	ff78                	.2byte	0xff78
   114f0:	fe45                	.2byte	0xfe45
   114f2:	fe40                	.2byte	0xfe40
   114f4:	fe40                	.2byte	0xfe40
   114f6:	fe40                	.2byte	0xfe40
   114f8:	fe40                	.2byte	0xfe40
   114fa:	fe40                	.2byte	0xfe40
   114fc:	fe40                	.2byte	0xfe40
   114fe:	fe40                	.2byte	0xfe40
   11500:	fe40                	.2byte	0xfe40
   11502:	fe40                	.2byte	0xfe40
   11504:	fe40                	.2byte	0xfe40
   11506:	fe40                	.2byte	0xfe40
   11508:	feae                	.2byte	0xfeae
   1150a:	ffff                	.2byte	0xffff
   1150c:	ffff                	.2byte	0xffff
   1150e:	ffff                	.2byte	0xffff
   11510:	ffff                	.2byte	0xffff
   11512:	ffff                	.2byte	0xffff
   11514:	ffff                	.2byte	0xffff
   11516:	ffff                	.2byte	0xffff
   11518:	ffff                	.2byte	0xffff
   1151a:	ffff                	.2byte	0xffff
   1151c:	ffff                	.2byte	0xffff
   1151e:	ffff                	.2byte	0xffff
   11520:	ffff                	.2byte	0xffff
   11522:	ffff                	.2byte	0xffff
   11524:	ffff                	.2byte	0xffff
   11526:	ffff                	.2byte	0xffff
   11528:	ffff                	.2byte	0xffff
   1152a:	ffff                	.2byte	0xffff
   1152c:	ffff                	.2byte	0xffff
   1152e:	ffff                	.2byte	0xffff
   11530:	ffff                	.2byte	0xffff
   11532:	ffff                	.2byte	0xffff
   11534:	ffff                	.2byte	0xffff
   11536:	ffff                	.2byte	0xffff
   11538:	ffff                	.2byte	0xffff
   1153a:	ffff                	.2byte	0xffff
   1153c:	ffff                	.2byte	0xffff
   1153e:	ffff                	.2byte	0xffff
   11540:	ffff                	.2byte	0xffff
   11542:	ffff                	.2byte	0xffff
   11544:	ffff                	.2byte	0xffff
   11546:	ffff                	.2byte	0xffff
   11548:	ffff                	.2byte	0xffff
   1154a:	ff35                	.2byte	0xff35
   1154c:	fe40                	.2byte	0xfe40
   1154e:	fe40                	.2byte	0xfe40
   11550:	fef1                	.2byte	0xfef1
   11552:	ffff                	.2byte	0xffff
   11554:	ffff                	.2byte	0xffff
   11556:	ffff                	.2byte	0xffff
   11558:	9496                	.2byte	0x9496
   1155a:	9496                	.2byte	0x9496
   1155c:	9496                	.2byte	0x9496
   1155e:	9496                	.2byte	0x9496
   11560:	9496                	.2byte	0x9496
   11562:	298f298f          	.4byte	0x298f298f
   11566:	298f298f          	.4byte	0x298f298f
   1156a:	52b1298f          	.4byte	0x52b1298f
   1156e:	ad78ce5b          	.4byte	0xad78ce5b
   11572:	a538                	.2byte	0xa538
   11574:	4250298f          	.4byte	0x4250298f
   11578:	f79f dedc 298f      	.byte	0x9f, 0xf7, 0xdc, 0xde, 0x8f, 0x29
   1157e:	e73d                	.2byte	0xe73d
   11580:	e71d                	.2byte	0xe71d
   11582:	defd298f          	.4byte	0xdefd298f
   11586:	ef7e                	.2byte	0xef7e
   11588:	298f31cf          	.4byte	0x298f31cf
   1158c:	298f298f          	.4byte	0x298f298f
   11590:	a537298f          	.4byte	0xa537298f
   11594:	ffff                	.2byte	0xffff
   11596:	ffff                	.2byte	0xffff
   11598:	ffff                	.2byte	0xffff
   1159a:	ffff                	.2byte	0xffff
   1159c:	ffff                	.2byte	0xffff
   1159e:	ffff                	.2byte	0xffff
   115a0:	ffff                	.2byte	0xffff
   115a2:	ffff                	.2byte	0xffff
   115a4:	ffff                	.2byte	0xffff
   115a6:	ffff                	.2byte	0xffff
   115a8:	ffff                	.2byte	0xffff
   115aa:	ffff                	.2byte	0xffff
   115ac:	ff35                	.2byte	0xff35
   115ae:	fe40fe43          	.4byte	0xfe40fe43
   115b2:	fe40                	.2byte	0xfe40
   115b4:	fe40                	.2byte	0xfe40
   115b6:	fe40                	.2byte	0xfe40
   115b8:	fe40                	.2byte	0xfe40
   115ba:	fe40                	.2byte	0xfe40
   115bc:	fe40                	.2byte	0xfe40
   115be:	fe40                	.2byte	0xfe40
   115c0:	fe40                	.2byte	0xfe40
   115c2:	fe40                	.2byte	0xfe40
   115c4:	fe40                	.2byte	0xfe40
   115c6:	fe40                	.2byte	0xfe40
   115c8:	fe40                	.2byte	0xfe40
   115ca:	ff34                	.2byte	0xff34
   115cc:	ffff                	.2byte	0xffff
   115ce:	ffff                	.2byte	0xffff
   115d0:	ffff                	.2byte	0xffff
   115d2:	ffff                	.2byte	0xffff
   115d4:	ffff                	.2byte	0xffff
   115d6:	ffff                	.2byte	0xffff
   115d8:	ffff                	.2byte	0xffff
   115da:	ffff                	.2byte	0xffff
   115dc:	ffff                	.2byte	0xffff
   115de:	ffff                	.2byte	0xffff
   115e0:	ffff                	.2byte	0xffff
   115e2:	ffff                	.2byte	0xffff
   115e4:	ffff                	.2byte	0xffff
   115e6:	ffff                	.2byte	0xffff
   115e8:	ffff                	.2byte	0xffff
   115ea:	ffff                	.2byte	0xffff
   115ec:	ffff                	.2byte	0xffff
   115ee:	ffff                	.2byte	0xffff
   115f0:	ffff                	.2byte	0xffff
   115f2:	ffff                	.2byte	0xffff
   115f4:	ffff                	.2byte	0xffff
   115f6:	ffff                	.2byte	0xffff
   115f8:	ffff                	.2byte	0xffff
   115fa:	ffff                	.2byte	0xffff
   115fc:	ffff                	.2byte	0xffff
   115fe:	ffff                	.2byte	0xffff
   11600:	ffff                	.2byte	0xffff
   11602:	ffff                	.2byte	0xffff
   11604:	ffff                	.2byte	0xffff
   11606:	ffff                	.2byte	0xffff
   11608:	ff9a                	.2byte	0xff9a
   1160a:	fe44                	.2byte	0xfe44
   1160c:	fe40                	.2byte	0xfe40
   1160e:	fe40                	.2byte	0xfe40
   11610:	fef1                	.2byte	0xfef1
   11612:	ffff                	.2byte	0xffff
   11614:	ffff                	.2byte	0xffff
   11616:	ffff                	.2byte	0xffff
   11618:	9496                	.2byte	0x9496
   1161a:	9496                	.2byte	0x9496
   1161c:	9496                	.2byte	0x9496
   1161e:	9496                	.2byte	0x9496
   11620:	9496                	.2byte	0x9496
   11622:	298f298f          	.4byte	0x298f298f
   11626:	298f298f          	.4byte	0x298f298f
   1162a:	298f298f          	.4byte	0x298f298f
   1162e:	6332                	.2byte	0x6332
   11630:	8435                	.2byte	0x8435
   11632:	3a10                	.2byte	0x3a10
   11634:	3a10298f          	.4byte	0x3a10298f
   11638:	f77e                	.2byte	0xf77e
   1163a:	ef5e                	.2byte	0xef5e
   1163c:	7bd4                	.2byte	0x7bd4
   1163e:	f79e                	.2byte	0xf79e
   11640:	dedc                	.2byte	0xdedc
   11642:	defd298f          	.4byte	0xdefd298f
   11646:	ef7e                	.2byte	0xef7e
   11648:	298f31cf          	.4byte	0x298f31cf
   1164c:	298f298f          	.4byte	0x298f298f
   11650:	a537298f          	.4byte	0xa537298f
   11654:	ffff                	.2byte	0xffff
   11656:	ffff                	.2byte	0xffff
   11658:	ffff                	.2byte	0xffff
   1165a:	ffff                	.2byte	0xffff
   1165c:	ffff                	.2byte	0xffff
   1165e:	ffff                	.2byte	0xffff
   11660:	ffff                	.2byte	0xffff
   11662:	ffff                	.2byte	0xffff
   11664:	ffff                	.2byte	0xffff
   11666:	ffff                	.2byte	0xffff
   11668:	fffe                	.2byte	0xfffe
   1166a:	fef1                	.2byte	0xfef1
   1166c:	fe41                	.2byte	0xfe41
   1166e:	fe40                	.2byte	0xfe40
   11670:	fe40                	.2byte	0xfe40
   11672:	fe40                	.2byte	0xfe40
   11674:	fe40                	.2byte	0xfe40
   11676:	fe40                	.2byte	0xfe40
   11678:	fe40                	.2byte	0xfe40
   1167a:	fe40                	.2byte	0xfe40
   1167c:	fe40                	.2byte	0xfe40
   1167e:	fe40                	.2byte	0xfe40
   11680:	fe40                	.2byte	0xfe40
   11682:	fe40                	.2byte	0xfe40
   11684:	fe40                	.2byte	0xfe40
   11686:	fe40                	.2byte	0xfe40
   11688:	fe40                	.2byte	0xfe40
   1168a:	fe42                	.2byte	0xfe42
   1168c:	ffffff57          	.4byte	0xffffff57
   11690:	ffff                	.2byte	0xffff
   11692:	ffff                	.2byte	0xffff
   11694:	ffff                	.2byte	0xffff
   11696:	ffff                	.2byte	0xffff
   11698:	ffff                	.2byte	0xffff
   1169a:	ffff                	.2byte	0xffff
   1169c:	ffff                	.2byte	0xffff
   1169e:	ffff                	.2byte	0xffff
   116a0:	ffff                	.2byte	0xffff
   116a2:	ffff                	.2byte	0xffff
   116a4:	ffff                	.2byte	0xffff
   116a6:	ffff                	.2byte	0xffff
   116a8:	ffff                	.2byte	0xffff
   116aa:	ffff                	.2byte	0xffff
   116ac:	ffff                	.2byte	0xffff
   116ae:	ffff                	.2byte	0xffff
   116b0:	ffff                	.2byte	0xffff
   116b2:	ffff                	.2byte	0xffff
   116b4:	ffff                	.2byte	0xffff
   116b6:	ffff                	.2byte	0xffff
   116b8:	ffff                	.2byte	0xffff
   116ba:	ffff                	.2byte	0xffff
   116bc:	ffff                	.2byte	0xffff
   116be:	ffff                	.2byte	0xffff
   116c0:	ffff                	.2byte	0xffff
   116c2:	ffff                	.2byte	0xffff
   116c4:	ffff                	.2byte	0xffff
   116c6:	fe68ffbb          	.4byte	0xfe68ffbb
   116ca:	fe40                	.2byte	0xfe40
   116cc:	fe40                	.2byte	0xfe40
   116ce:	fe40                	.2byte	0xfe40
   116d0:	fef1                	.2byte	0xfef1
   116d2:	ffff                	.2byte	0xffff
   116d4:	ffff                	.2byte	0xffff
   116d6:	ffff                	.2byte	0xffff
   116d8:	9496                	.2byte	0x9496
   116da:	9496                	.2byte	0x9496
   116dc:	9496                	.2byte	0x9496
   116de:	9496                	.2byte	0x9496
   116e0:	9496                	.2byte	0x9496
   116e2:	298f298f          	.4byte	0x298f298f
   116e6:	3a10298f          	.4byte	0x3a10298f
   116ea:	ad78                	.2byte	0xad78
   116ec:	6352                	.2byte	0x6352
   116ee:	298f298f          	.4byte	0x298f298f
   116f2:	298f298f          	.4byte	0x298f298f
   116f6:	bdd9298f          	.4byte	0xbdd9298f
   116fa:	ffff                	.2byte	0xffff
   116fc:	ffff                	.2byte	0xffff
   116fe:	ffff                	.2byte	0xffff
   11700:	9cd6                	.2byte	0x9cd6
   11702:	defd298f          	.4byte	0xdefd298f
   11706:	ef7e                	.2byte	0xef7e
   11708:	298f31cf          	.4byte	0x298f31cf
   1170c:	298f298f          	.4byte	0x298f298f
   11710:	a537298f          	.4byte	0xa537298f
   11714:	ffff                	.2byte	0xffff
   11716:	ffff                	.2byte	0xffff
   11718:	ffff                	.2byte	0xffff
   1171a:	ffff                	.2byte	0xffff
   1171c:	ffff                	.2byte	0xffff
   1171e:	ffff                	.2byte	0xffff
   11720:	ffff                	.2byte	0xffff
   11722:	ffff                	.2byte	0xffff
   11724:	ffff                	.2byte	0xffff
   11726:	ffdd                	.2byte	0xffdd
   11728:	feae                	.2byte	0xfeae
   1172a:	fe40                	.2byte	0xfe40
   1172c:	fe40                	.2byte	0xfe40
   1172e:	fe40                	.2byte	0xfe40
   11730:	fe40                	.2byte	0xfe40
   11732:	fe40                	.2byte	0xfe40
   11734:	fe40                	.2byte	0xfe40
   11736:	fe40                	.2byte	0xfe40
   11738:	fe40                	.2byte	0xfe40
   1173a:	fe40                	.2byte	0xfe40
   1173c:	fe40                	.2byte	0xfe40
   1173e:	fe40                	.2byte	0xfe40
   11740:	fe40                	.2byte	0xfe40
   11742:	fe40                	.2byte	0xfe40
   11744:	fe40                	.2byte	0xfe40
   11746:	fe40                	.2byte	0xfe40
   11748:	fe40                	.2byte	0xfe40
   1174a:	fe40                	.2byte	0xfe40
   1174c:	fe44                	.2byte	0xfe44
   1174e:	ffffff57          	.4byte	0xffffff57
   11752:	ffff                	.2byte	0xffff
   11754:	ffff                	.2byte	0xffff
   11756:	ffff                	.2byte	0xffff
   11758:	ffff                	.2byte	0xffff
   1175a:	ffff                	.2byte	0xffff
   1175c:	ffff                	.2byte	0xffff
   1175e:	ffff                	.2byte	0xffff
   11760:	ffff                	.2byte	0xffff
   11762:	ffff                	.2byte	0xffff
   11764:	ffff                	.2byte	0xffff
   11766:	ffff                	.2byte	0xffff
   11768:	ffff                	.2byte	0xffff
   1176a:	ffff                	.2byte	0xffff
   1176c:	ffff                	.2byte	0xffff
   1176e:	ffff                	.2byte	0xffff
   11770:	ffff                	.2byte	0xffff
   11772:	ffff                	.2byte	0xffff
   11774:	ffff                	.2byte	0xffff
   11776:	ffff                	.2byte	0xffff
   11778:	ffff                	.2byte	0xffff
   1177a:	ffff                	.2byte	0xffff
   1177c:	ffff                	.2byte	0xffff
   1177e:	ffff                	.2byte	0xffff
   11780:	ffff                	.2byte	0xffff
   11782:	ffff                	.2byte	0xffff
   11784:	fe68ffbb          	.4byte	0xfe68ffbb
   11788:	fe40                	.2byte	0xfe40
   1178a:	fe40                	.2byte	0xfe40
   1178c:	fe40                	.2byte	0xfe40
   1178e:	fe40                	.2byte	0xfe40
   11790:	fef1                	.2byte	0xfef1
   11792:	ffff                	.2byte	0xffff
   11794:	ffff                	.2byte	0xffff
   11796:	ffff                	.2byte	0xffff
   11798:	9496                	.2byte	0x9496
   1179a:	9496                	.2byte	0x9496
   1179c:	9496                	.2byte	0x9496
   1179e:	9496                	.2byte	0x9496
   117a0:	9496                	.2byte	0x9496
   117a2:	298f298f          	.4byte	0x298f298f
   117a6:	298f298f          	.4byte	0x298f298f
   117aa:	d6bc6b93          	ori	s7,s8,-661
   117ae:	bdfa                	.2byte	0xbdfa
   117b0:	7bf4                	.2byte	0x7bf4
   117b2:	298f31cf          	.4byte	0x298f31cf
   117b6:	39ef298f          	.4byte	0x39ef298f
   117ba:	9cd6                	.2byte	0x9cd6
   117bc:	bdf9                	.2byte	0xbdf9
   117be:	8c55                	.2byte	0x8c55
   117c0:	298f29af          	.4byte	0x298f29af
   117c4:	a538                	.2byte	0xa538
   117c6:	b599                	.2byte	0xb599
   117c8:	298f31af          	.4byte	0x298f31af
   117cc:	298f298f          	.4byte	0x298f298f
   117d0:	a537298f          	.4byte	0xa537298f
   117d4:	ffff                	.2byte	0xffff
   117d6:	ffff                	.2byte	0xffff
   117d8:	ffff                	.2byte	0xffff
   117da:	ffff                	.2byte	0xffff
   117dc:	ffff                	.2byte	0xffff
   117de:	ffff                	.2byte	0xffff
   117e0:	ffff                	.2byte	0xffff
   117e2:	ffff                	.2byte	0xffff
   117e4:	fe8affbb          	.4byte	0xfe8affbb
   117e8:	fe40                	.2byte	0xfe40
   117ea:	fe40                	.2byte	0xfe40
   117ec:	fe40                	.2byte	0xfe40
   117ee:	fe40                	.2byte	0xfe40
   117f0:	fe40                	.2byte	0xfe40
   117f2:	fe40                	.2byte	0xfe40
   117f4:	fe40                	.2byte	0xfe40
   117f6:	fe40                	.2byte	0xfe40
   117f8:	fe40                	.2byte	0xfe40
   117fa:	fe40                	.2byte	0xfe40
   117fc:	fe40                	.2byte	0xfe40
   117fe:	fe40                	.2byte	0xfe40
   11800:	fe40                	.2byte	0xfe40
   11802:	fe40                	.2byte	0xfe40
   11804:	fe40                	.2byte	0xfe40
   11806:	fe40                	.2byte	0xfe40
   11808:	fe40                	.2byte	0xfe40
   1180a:	fe40                	.2byte	0xfe40
   1180c:	fe40                	.2byte	0xfe40
   1180e:	ff34fe43          	.4byte	0xff34fe43
   11812:	ffff                	.2byte	0xffff
   11814:	ffff                	.2byte	0xffff
   11816:	ffff                	.2byte	0xffff
   11818:	ffff                	.2byte	0xffff
   1181a:	ffff                	.2byte	0xffff
   1181c:	ffff                	.2byte	0xffff
   1181e:	ffff                	.2byte	0xffff
   11820:	ffff                	.2byte	0xffff
   11822:	ffff                	.2byte	0xffff
   11824:	ffff                	.2byte	0xffff
   11826:	ffff                	.2byte	0xffff
   11828:	ffff                	.2byte	0xffff
   1182a:	ffff                	.2byte	0xffff
   1182c:	ffff                	.2byte	0xffff
   1182e:	ffff                	.2byte	0xffff
   11830:	ffff                	.2byte	0xffff
   11832:	ffff                	.2byte	0xffff
   11834:	ffff                	.2byte	0xffff
   11836:	ffff                	.2byte	0xffff
   11838:	ffff                	.2byte	0xffff
   1183a:	ffff                	.2byte	0xffff
   1183c:	ffff                	.2byte	0xffff
   1183e:	ffff                	.2byte	0xffff
   11840:	ffff                	.2byte	0xffff
   11842:	fe66ff57          	.4byte	0xfe66ff57
   11846:	fe40                	.2byte	0xfe40
   11848:	fe40                	.2byte	0xfe40
   1184a:	fe40                	.2byte	0xfe40
   1184c:	fe40                	.2byte	0xfe40
   1184e:	fe40                	.2byte	0xfe40
   11850:	fef1                	.2byte	0xfef1
   11852:	ffff                	.2byte	0xffff
   11854:	ffff                	.2byte	0xffff
   11856:	ffff                	.2byte	0xffff
   11858:	9496                	.2byte	0x9496
   1185a:	9496                	.2byte	0x9496
   1185c:	9496                	.2byte	0x9496
   1185e:	9496                	.2byte	0x9496
   11860:	9496                	.2byte	0x9496
   11862:	298f298f          	.4byte	0x298f298f
   11866:	298f298f          	.4byte	0x298f298f
   1186a:	b5b9298f          	.4byte	0xb5b9298f
   1186e:	5af2                	.2byte	0x5af2
   11870:	bdfa                	.2byte	0xbdfa
   11872:	b598                	.2byte	0xb598
   11874:	298f298f          	.4byte	0x298f298f
   11878:	31ef298f          	.4byte	0x31ef298f
   1187c:	8c55                	.2byte	0x8c55
   1187e:	bdd9                	.2byte	0xbdd9
   11880:	b5b9                	.2byte	0xb5b9
   11882:	7c14                	.2byte	0x7c14
   11884:	298f31af          	.4byte	0x298f31af
   11888:	298f298f          	.4byte	0x298f298f
   1188c:	298f298f          	.4byte	0x298f298f
   11890:	a537298f          	.4byte	0xa537298f
   11894:	ffff                	.2byte	0xffff
   11896:	ffff                	.2byte	0xffff
   11898:	ffff                	.2byte	0xffff
   1189a:	ffff                	.2byte	0xffff
   1189c:	ffff                	.2byte	0xffff
   1189e:	ffff                	.2byte	0xffff
   118a0:	ffff                	.2byte	0xffff
   118a2:	ff79                	.2byte	0xff79
   118a4:	fe40fe67          	.4byte	0xfe40fe67
   118a8:	fe40                	.2byte	0xfe40
   118aa:	fe40                	.2byte	0xfe40
   118ac:	fe40                	.2byte	0xfe40
   118ae:	fe40                	.2byte	0xfe40
   118b0:	fe40                	.2byte	0xfe40
   118b2:	fe40                	.2byte	0xfe40
   118b4:	fe40                	.2byte	0xfe40
   118b6:	fe40                	.2byte	0xfe40
   118b8:	fe40                	.2byte	0xfe40
   118ba:	fe40                	.2byte	0xfe40
   118bc:	fe40                	.2byte	0xfe40
   118be:	fe40                	.2byte	0xfe40
   118c0:	fe40                	.2byte	0xfe40
   118c2:	fe40                	.2byte	0xfe40
   118c4:	fe40                	.2byte	0xfe40
   118c6:	fe40                	.2byte	0xfe40
   118c8:	fe40                	.2byte	0xfe40
   118ca:	fe40                	.2byte	0xfe40
   118cc:	fe40                	.2byte	0xfe40
   118ce:	fe40                	.2byte	0xfe40
   118d0:	fe40                	.2byte	0xfe40
   118d2:	feae                	.2byte	0xfeae
   118d4:	ffffffbb          	.4byte	0xffffffbb
   118d8:	ffff                	.2byte	0xffff
   118da:	ffff                	.2byte	0xffff
   118dc:	ffff                	.2byte	0xffff
   118de:	ffff                	.2byte	0xffff
   118e0:	ffff                	.2byte	0xffff
   118e2:	ffff                	.2byte	0xffff
   118e4:	ffff                	.2byte	0xffff
   118e6:	ffff                	.2byte	0xffff
   118e8:	ffff                	.2byte	0xffff
   118ea:	ffff                	.2byte	0xffff
   118ec:	ffff                	.2byte	0xffff
   118ee:	ffff                	.2byte	0xffff
   118f0:	ffff                	.2byte	0xffff
   118f2:	ffff                	.2byte	0xffff
   118f4:	ffff                	.2byte	0xffff
   118f6:	ffff                	.2byte	0xffff
   118f8:	ffff                	.2byte	0xffff
   118fa:	ffff                	.2byte	0xffff
   118fc:	ffff                	.2byte	0xffff
   118fe:	ffdc                	.2byte	0xffdc
   11900:	fed0                	.2byte	0xfed0
   11902:	fe41                	.2byte	0xfe41
   11904:	fe40                	.2byte	0xfe40
   11906:	fe40                	.2byte	0xfe40
   11908:	fe40                	.2byte	0xfe40
   1190a:	fe40                	.2byte	0xfe40
   1190c:	fe40                	.2byte	0xfe40
   1190e:	fe40                	.2byte	0xfe40
   11910:	fef1                	.2byte	0xfef1
   11912:	ffff                	.2byte	0xffff
   11914:	ffff                	.2byte	0xffff
   11916:	ffff                	.2byte	0xffff
   11918:	9496                	.2byte	0x9496
   1191a:	9496                	.2byte	0x9496
   1191c:	9496                	.2byte	0x9496
   1191e:	9496                	.2byte	0x9496
   11920:	9496                	.2byte	0x9496
   11922:	298f298f          	.4byte	0x298f298f
   11926:	298f298f          	.4byte	0x298f298f
   1192a:	ce7b31ef          	jal	gp,fffc5610 <IO_BASE+0xffbc5610>
   1192e:	c63a                	.2byte	0xc63a
   11930:	b5b9                	.2byte	0xb5b9
   11932:	6312                	.2byte	0x6312
   11934:	298f298f          	.4byte	0x298f298f
   11938:	4230                	.2byte	0x4230
   1193a:	ffffce7b          	.4byte	0xffffce7b
   1193e:	ffff                	.2byte	0xffff
   11940:	ffff                	.2byte	0xffff
   11942:	ffff                	.2byte	0xffff
   11944:	c61a                	.2byte	0xc61a
   11946:	298f31cf          	.4byte	0x298f31cf
   1194a:	298f298f          	.4byte	0x298f298f
   1194e:	298f298f          	.4byte	0x298f298f
   11952:	ffffa537          	lui	a0,0xffffa
   11956:	ffff                	.2byte	0xffff
   11958:	ffff                	.2byte	0xffff
   1195a:	ffff                	.2byte	0xffff
   1195c:	ffff                	.2byte	0xffff
   1195e:	ffff                	.2byte	0xffff
   11960:	ff56                	.2byte	0xff56
   11962:	fe40fe43          	.4byte	0xfe40fe43
   11966:	fe40                	.2byte	0xfe40
   11968:	fe40                	.2byte	0xfe40
   1196a:	fe40                	.2byte	0xfe40
   1196c:	fe40                	.2byte	0xfe40
   1196e:	fe40                	.2byte	0xfe40
   11970:	fe40                	.2byte	0xfe40
   11972:	fe40                	.2byte	0xfe40
   11974:	fe40                	.2byte	0xfe40
   11976:	fe40                	.2byte	0xfe40
   11978:	fe40                	.2byte	0xfe40
   1197a:	fe40                	.2byte	0xfe40
   1197c:	fe40                	.2byte	0xfe40
   1197e:	fe40                	.2byte	0xfe40
   11980:	fe40                	.2byte	0xfe40
   11982:	fe40                	.2byte	0xfe40
   11984:	fe40                	.2byte	0xfe40
   11986:	fe40                	.2byte	0xfe40
   11988:	fe40                	.2byte	0xfe40
   1198a:	fe40                	.2byte	0xfe40
   1198c:	fe40                	.2byte	0xfe40
   1198e:	fe40                	.2byte	0xfe40
   11990:	fe40                	.2byte	0xfe40
   11992:	fe40                	.2byte	0xfe40
   11994:	fe44                	.2byte	0xfe44
   11996:	ff12                	.2byte	0xff12
   11998:	ffbc                	.2byte	0xffbc
   1199a:	ffff                	.2byte	0xffff
   1199c:	ffff                	.2byte	0xffff
   1199e:	ffff                	.2byte	0xffff
   119a0:	ffff                	.2byte	0xffff
   119a2:	ffff                	.2byte	0xffff
   119a4:	ffff                	.2byte	0xffff
   119a6:	ffff                	.2byte	0xffff
   119a8:	ffff                	.2byte	0xffff
   119aa:	ffff                	.2byte	0xffff
   119ac:	ffff                	.2byte	0xffff
   119ae:	ffff                	.2byte	0xffff
   119b0:	ffff                	.2byte	0xffff
   119b2:	ffff                	.2byte	0xffff
   119b4:	ffff                	.2byte	0xffff
   119b6:	ffff                	.2byte	0xffff
   119b8:	ffff                	.2byte	0xffff
   119ba:	ffbc                	.2byte	0xffbc
   119bc:	fe45ff13          	andi	t5,a1,-28
   119c0:	fe40                	.2byte	0xfe40
   119c2:	fe40                	.2byte	0xfe40
   119c4:	fe40                	.2byte	0xfe40
   119c6:	fe40                	.2byte	0xfe40
   119c8:	fe40                	.2byte	0xfe40
   119ca:	fe40                	.2byte	0xfe40
   119cc:	fe40                	.2byte	0xfe40
   119ce:	fe40                	.2byte	0xfe40
   119d0:	fef1                	.2byte	0xfef1
   119d2:	ffff                	.2byte	0xffff
   119d4:	ffff                	.2byte	0xffff
   119d6:	ffff                	.2byte	0xffff
   119d8:	9496                	.2byte	0x9496
   119da:	9496                	.2byte	0x9496
   119dc:	9496                	.2byte	0x9496
   119de:	9496                	.2byte	0x9496
   119e0:	9496                	.2byte	0x9496
   119e2:	298f298f          	.4byte	0x298f298f
   119e6:	3a10298f          	.4byte	0x3a10298f
   119ea:	ad58c63b          	.4byte	0xad58c63b
   119ee:	52b1                	.2byte	0x52b1
   119f0:	298f298f          	.4byte	0x298f298f
   119f4:	298f298f          	.4byte	0x298f298f
   119f8:	b5b9                	.2byte	0xb5b9
   119fa:	ffff                	.2byte	0xffff
   119fc:	6352ce5b          	.4byte	0x6352ce5b
   11a00:	6b52                	.2byte	0x6b52
   11a02:	ffffce7b          	.4byte	0xffffce7b
   11a06:	298fa537          	lui	a0,0x298fa
   11a0a:	298f298f          	.4byte	0x298f298f
   11a0e:	298f298f          	.4byte	0x298f298f
   11a12:	ffffa537          	lui	a0,0xffffa
   11a16:	ffff                	.2byte	0xffff
   11a18:	ffff                	.2byte	0xffff
   11a1a:	ffff                	.2byte	0xffff
   11a1c:	ffff                	.2byte	0xffff
   11a1e:	ff99                	.2byte	0xff99
   11a20:	fe44                	.2byte	0xfe44
   11a22:	fe40                	.2byte	0xfe40
   11a24:	fe40                	.2byte	0xfe40
   11a26:	fe40                	.2byte	0xfe40
   11a28:	fe40                	.2byte	0xfe40
   11a2a:	fe40                	.2byte	0xfe40
   11a2c:	fe40                	.2byte	0xfe40
   11a2e:	fe40                	.2byte	0xfe40
   11a30:	fe40                	.2byte	0xfe40
   11a32:	fe40                	.2byte	0xfe40
   11a34:	fe40                	.2byte	0xfe40
   11a36:	fe40                	.2byte	0xfe40
   11a38:	fe40                	.2byte	0xfe40
   11a3a:	fe40                	.2byte	0xfe40
   11a3c:	fe40                	.2byte	0xfe40
   11a3e:	fe40                	.2byte	0xfe40
   11a40:	fe40                	.2byte	0xfe40
   11a42:	fe40                	.2byte	0xfe40
   11a44:	fe40                	.2byte	0xfe40
   11a46:	fe40                	.2byte	0xfe40
   11a48:	fe40                	.2byte	0xfe40
   11a4a:	fe40                	.2byte	0xfe40
   11a4c:	fe40                	.2byte	0xfe40
   11a4e:	fe40                	.2byte	0xfe40
   11a50:	fe40                	.2byte	0xfe40
   11a52:	fe40                	.2byte	0xfe40
   11a54:	fe40                	.2byte	0xfe40
   11a56:	fe40                	.2byte	0xfe40
   11a58:	fe44                	.2byte	0xfe44
   11a5a:	ff78fecf          	.4byte	0xff78fecf
   11a5e:	ffdd                	.2byte	0xffdd
   11a60:	ffff                	.2byte	0xffff
   11a62:	ffff                	.2byte	0xffff
   11a64:	ffff                	.2byte	0xffff
   11a66:	ffff                	.2byte	0xffff
   11a68:	ffff                	.2byte	0xffff
   11a6a:	ffff                	.2byte	0xffff
   11a6c:	ffff                	.2byte	0xffff
   11a6e:	ffff                	.2byte	0xffff
   11a70:	ffff                	.2byte	0xffff
   11a72:	ffff                	.2byte	0xffff
   11a74:	ffdd                	.2byte	0xffdd
   11a76:	fecfff57          	.4byte	0xfecfff57
   11a7a:	fe44                	.2byte	0xfe44
   11a7c:	fe40                	.2byte	0xfe40
   11a7e:	fe40                	.2byte	0xfe40
   11a80:	fe40                	.2byte	0xfe40
   11a82:	fe40                	.2byte	0xfe40
   11a84:	fe40                	.2byte	0xfe40
   11a86:	fe40                	.2byte	0xfe40
   11a88:	fe40                	.2byte	0xfe40
   11a8a:	fe40                	.2byte	0xfe40
   11a8c:	fe40                	.2byte	0xfe40
   11a8e:	fe40                	.2byte	0xfe40
   11a90:	fef1                	.2byte	0xfef1
   11a92:	ffff                	.2byte	0xffff
   11a94:	ffff                	.2byte	0xffff
   11a96:	ffff                	.2byte	0xffff
   11a98:	9496                	.2byte	0x9496
   11a9a:	9496                	.2byte	0x9496
   11a9c:	9496                	.2byte	0x9496
   11a9e:	9496                	.2byte	0x9496
   11aa0:	9496                	.2byte	0x9496
   11aa2:	298f298f          	.4byte	0x298f298f
   11aa6:	29af298f          	.4byte	0x29af298f
   11aaa:	39f0                	.2byte	0x39f0
   11aac:	298f298f          	.4byte	0x298f298f
   11ab0:	633231cf          	.4byte	0x633231cf
   11ab4:	31ef298f          	.4byte	0x31ef298f
   11ab8:	ef5e                	.2byte	0xef5e
   11aba:	ef7e                	.2byte	0xef7e
   11abc:	3a10                	.2byte	0x3a10
   11abe:	298f298f          	.4byte	0x298f298f
   11ac2:	4250                	.2byte	0x4250
   11ac4:	ef7e                	.2byte	0xef7e
   11ac6:	e71d                	.2byte	0xe71d
   11ac8:	298f298f          	.4byte	0x298f298f
   11acc:	298f298f          	.4byte	0x298f298f
   11ad0:	a537298f          	.4byte	0xa537298f
   11ad4:	ffff                	.2byte	0xffff
   11ad6:	ffff                	.2byte	0xffff
   11ad8:	ffff                	.2byte	0xffff
   11ada:	ffff                	.2byte	0xffff
   11adc:	ffff                	.2byte	0xffff
   11ade:	ffff                	.2byte	0xffff
   11ae0:	ff99                	.2byte	0xff99
   11ae2:	fe89                	.2byte	0xfe89
   11ae4:	fe40                	.2byte	0xfe40
   11ae6:	fe40                	.2byte	0xfe40
   11ae8:	fe40                	.2byte	0xfe40
   11aea:	fe40                	.2byte	0xfe40
   11aec:	fe40                	.2byte	0xfe40
   11aee:	fe40                	.2byte	0xfe40
   11af0:	fe40                	.2byte	0xfe40
   11af2:	fe40                	.2byte	0xfe40
   11af4:	fe40                	.2byte	0xfe40
   11af6:	fe40                	.2byte	0xfe40
   11af8:	fe40                	.2byte	0xfe40
   11afa:	fe40                	.2byte	0xfe40
   11afc:	fe40                	.2byte	0xfe40
   11afe:	fe40                	.2byte	0xfe40
   11b00:	fe40                	.2byte	0xfe40
   11b02:	fe40                	.2byte	0xfe40
   11b04:	fe40                	.2byte	0xfe40
   11b06:	fe40                	.2byte	0xfe40
   11b08:	fe40                	.2byte	0xfe40
   11b0a:	fe40                	.2byte	0xfe40
   11b0c:	fe40                	.2byte	0xfe40
   11b0e:	fe40                	.2byte	0xfe40
   11b10:	fe40                	.2byte	0xfe40
   11b12:	fe40                	.2byte	0xfe40
   11b14:	fe40                	.2byte	0xfe40
   11b16:	fe40                	.2byte	0xfe40
   11b18:	fe40                	.2byte	0xfe40
   11b1a:	fe40                	.2byte	0xfe40
   11b1c:	fe40                	.2byte	0xfe40
   11b1e:	fe8afe43          	.4byte	0xfe8afe43
   11b22:	fef0                	.2byte	0xfef0
   11b24:	ff14                	.2byte	0xff14
   11b26:	ff56                	.2byte	0xff56
   11b28:	ff57ff57          	.4byte	0xff57ff57
   11b2c:	ff56                	.2byte	0xff56
   11b2e:	ff14                	.2byte	0xff14
   11b30:	fed0                	.2byte	0xfed0
   11b32:	fe89                	.2byte	0xfe89
   11b34:	fe42                	.2byte	0xfe42
   11b36:	fe40                	.2byte	0xfe40
   11b38:	fe40                	.2byte	0xfe40
   11b3a:	fe40                	.2byte	0xfe40
   11b3c:	fe40                	.2byte	0xfe40
   11b3e:	fe40                	.2byte	0xfe40
   11b40:	fe40                	.2byte	0xfe40
   11b42:	fe40                	.2byte	0xfe40
   11b44:	fe40                	.2byte	0xfe40
   11b46:	fe40                	.2byte	0xfe40
   11b48:	fe40                	.2byte	0xfe40
   11b4a:	fe40                	.2byte	0xfe40
   11b4c:	fe40                	.2byte	0xfe40
   11b4e:	fe40                	.2byte	0xfe40
   11b50:	fef1                	.2byte	0xfef1
   11b52:	ffff                	.2byte	0xffff
   11b54:	ffff                	.2byte	0xffff
   11b56:	ffff                	.2byte	0xffff
   11b58:	9496                	.2byte	0x9496
   11b5a:	9496                	.2byte	0x9496
   11b5c:	9496                	.2byte	0x9496
   11b5e:	9496                	.2byte	0x9496
   11b60:	9496                	.2byte	0x9496
   11b62:	298f298f          	.4byte	0x298f298f
   11b66:	298f298f          	.4byte	0x298f298f
   11b6a:	298f298f          	.4byte	0x298f298f
   11b6e:	4250298f          	.4byte	0x4250298f
   11b72:	b599                	.2byte	0xb599
   11b74:	4250298f          	.4byte	0x4250298f
   11b78:	f79f defc 298f      	.byte	0x9f, 0xf7, 0xfc, 0xde, 0x8f, 0x29
   11b7e:	298f298f          	.4byte	0x298f298f
   11b82:	defd298f          	.4byte	0xdefd298f
   11b86:	ef7e                	.2byte	0xef7e
   11b88:	298f31cf          	.4byte	0x298f31cf
   11b8c:	298f298f          	.4byte	0x298f298f
   11b90:	a537298f          	.4byte	0xa537298f
   11b94:	ffff                	.2byte	0xffff
   11b96:	ffff                	.2byte	0xffff
   11b98:	ffff                	.2byte	0xffff
   11b9a:	ffff                	.2byte	0xffff
   11b9c:	ffff                	.2byte	0xffff
   11b9e:	ffff                	.2byte	0xffff
   11ba0:	ffff                	.2byte	0xffff
   11ba2:	ffdd                	.2byte	0xffdd
   11ba4:	fef1                	.2byte	0xfef1
   11ba6:	fe41                	.2byte	0xfe41
   11ba8:	fe40                	.2byte	0xfe40
   11baa:	fe40                	.2byte	0xfe40
   11bac:	fe40                	.2byte	0xfe40
   11bae:	fe40                	.2byte	0xfe40
   11bb0:	fe40                	.2byte	0xfe40
   11bb2:	fe40                	.2byte	0xfe40
   11bb4:	fe40                	.2byte	0xfe40
   11bb6:	fe40                	.2byte	0xfe40
   11bb8:	fe40                	.2byte	0xfe40
   11bba:	fe40                	.2byte	0xfe40
   11bbc:	fe40                	.2byte	0xfe40
   11bbe:	fe40                	.2byte	0xfe40
   11bc0:	fe40                	.2byte	0xfe40
   11bc2:	fe40                	.2byte	0xfe40
   11bc4:	fe40                	.2byte	0xfe40
   11bc6:	fe40                	.2byte	0xfe40
   11bc8:	fe40                	.2byte	0xfe40
   11bca:	fe40                	.2byte	0xfe40
   11bcc:	fe40                	.2byte	0xfe40
   11bce:	fe40                	.2byte	0xfe40
   11bd0:	fe40                	.2byte	0xfe40
   11bd2:	fe40                	.2byte	0xfe40
   11bd4:	fe40                	.2byte	0xfe40
   11bd6:	fe40                	.2byte	0xfe40
   11bd8:	fe40                	.2byte	0xfe40
   11bda:	fe40                	.2byte	0xfe40
   11bdc:	fe40                	.2byte	0xfe40
   11bde:	fe40                	.2byte	0xfe40
   11be0:	fe40                	.2byte	0xfe40
   11be2:	fe40                	.2byte	0xfe40
   11be4:	fe40                	.2byte	0xfe40
   11be6:	fe40                	.2byte	0xfe40
   11be8:	fe40                	.2byte	0xfe40
   11bea:	fe40                	.2byte	0xfe40
   11bec:	fe40                	.2byte	0xfe40
   11bee:	fe40                	.2byte	0xfe40
   11bf0:	fe40                	.2byte	0xfe40
   11bf2:	fe40                	.2byte	0xfe40
   11bf4:	fe40                	.2byte	0xfe40
   11bf6:	fe40                	.2byte	0xfe40
   11bf8:	fe40                	.2byte	0xfe40
   11bfa:	fe40                	.2byte	0xfe40
   11bfc:	fe40                	.2byte	0xfe40
   11bfe:	fe40                	.2byte	0xfe40
   11c00:	fe40                	.2byte	0xfe40
   11c02:	fe40                	.2byte	0xfe40
   11c04:	fe40                	.2byte	0xfe40
   11c06:	fe40                	.2byte	0xfe40
   11c08:	fe40                	.2byte	0xfe40
   11c0a:	fe40                	.2byte	0xfe40
   11c0c:	fe40                	.2byte	0xfe40
   11c0e:	fe40                	.2byte	0xfe40
   11c10:	fef1                	.2byte	0xfef1
   11c12:	ffff                	.2byte	0xffff
   11c14:	ffff                	.2byte	0xffff
   11c16:	ffff                	.2byte	0xffff
   11c18:	9496                	.2byte	0x9496
   11c1a:	9496                	.2byte	0x9496
   11c1c:	9496                	.2byte	0x9496
   11c1e:	9496                	.2byte	0x9496
   11c20:	9496                	.2byte	0x9496
   11c22:	298f298f          	.4byte	0x298f298f
   11c26:	3a10298f          	.4byte	0x3a10298f
   11c2a:	b599                	.2byte	0xb599
   11c2c:	bdd9                	.2byte	0xbdd9
   11c2e:	bdd9                	.2byte	0xbdd9
   11c30:	bdfa                	.2byte	0xbdfa
   11c32:	bdfa                	.2byte	0xbdfa
   11c34:	4250298f          	.4byte	0x4250298f
   11c38:	f79f dedc 298f      	.byte	0x9f, 0xf7, 0xdc, 0xde, 0x8f, 0x29
   11c3e:	298f298f          	.4byte	0x298f298f
   11c42:	defd298f          	.4byte	0xdefd298f
   11c46:	ef7e                	.2byte	0xef7e
   11c48:	298f31cf          	.4byte	0x298f31cf
   11c4c:	298f298f          	.4byte	0x298f298f
   11c50:	a537298f          	.4byte	0xa537298f
   11c54:	ffff                	.2byte	0xffff
   11c56:	ffff                	.2byte	0xffff
   11c58:	ffff                	.2byte	0xffff
   11c5a:	ffff                	.2byte	0xffff
   11c5c:	ffff                	.2byte	0xffff
   11c5e:	ffff                	.2byte	0xffff
   11c60:	ffff                	.2byte	0xffff
   11c62:	ffff                	.2byte	0xffff
   11c64:	ffff                	.2byte	0xffff
   11c66:	fe66ff57          	.4byte	0xfe66ff57
   11c6a:	fe40                	.2byte	0xfe40
   11c6c:	fe40                	.2byte	0xfe40
   11c6e:	fe40                	.2byte	0xfe40
   11c70:	fe40                	.2byte	0xfe40
   11c72:	fe40                	.2byte	0xfe40
   11c74:	fe40                	.2byte	0xfe40
   11c76:	fe40                	.2byte	0xfe40
   11c78:	fe40                	.2byte	0xfe40
   11c7a:	fe40                	.2byte	0xfe40
   11c7c:	fe40                	.2byte	0xfe40
   11c7e:	fe40                	.2byte	0xfe40
   11c80:	fe40                	.2byte	0xfe40
   11c82:	fe40                	.2byte	0xfe40
   11c84:	fe40                	.2byte	0xfe40
   11c86:	fe40                	.2byte	0xfe40
   11c88:	fe40                	.2byte	0xfe40
   11c8a:	fe40                	.2byte	0xfe40
   11c8c:	fe40                	.2byte	0xfe40
   11c8e:	fe40                	.2byte	0xfe40
   11c90:	fe40                	.2byte	0xfe40
   11c92:	fe40                	.2byte	0xfe40
   11c94:	fe40                	.2byte	0xfe40
   11c96:	fe40                	.2byte	0xfe40
   11c98:	fe40                	.2byte	0xfe40
   11c9a:	fe40                	.2byte	0xfe40
   11c9c:	fe40                	.2byte	0xfe40
   11c9e:	fe40                	.2byte	0xfe40
   11ca0:	fe40                	.2byte	0xfe40
   11ca2:	fe40                	.2byte	0xfe40
   11ca4:	fe40                	.2byte	0xfe40
   11ca6:	fe40                	.2byte	0xfe40
   11ca8:	fe40                	.2byte	0xfe40
   11caa:	fe40                	.2byte	0xfe40
   11cac:	fe40                	.2byte	0xfe40
   11cae:	fe40                	.2byte	0xfe40
   11cb0:	fe40                	.2byte	0xfe40
   11cb2:	fe40                	.2byte	0xfe40
   11cb4:	fe40                	.2byte	0xfe40
   11cb6:	fe40                	.2byte	0xfe40
   11cb8:	fe40                	.2byte	0xfe40
   11cba:	fe40                	.2byte	0xfe40
   11cbc:	fe40                	.2byte	0xfe40
   11cbe:	fe40                	.2byte	0xfe40
   11cc0:	fe40                	.2byte	0xfe40
   11cc2:	fe40                	.2byte	0xfe40
   11cc4:	fe40                	.2byte	0xfe40
   11cc6:	fe40                	.2byte	0xfe40
   11cc8:	fe40                	.2byte	0xfe40
   11cca:	fe40                	.2byte	0xfe40
   11ccc:	fe40                	.2byte	0xfe40
   11cce:	fe40                	.2byte	0xfe40
   11cd0:	fef1                	.2byte	0xfef1
   11cd2:	ffff                	.2byte	0xffff
   11cd4:	ffff                	.2byte	0xffff
   11cd6:	ffff                	.2byte	0xffff
   11cd8:	9496                	.2byte	0x9496
   11cda:	9496                	.2byte	0x9496
   11cdc:	9496                	.2byte	0x9496
   11cde:	9496                	.2byte	0x9496
   11ce0:	9496                	.2byte	0x9496
   11ce2:	298f298f          	.4byte	0x298f298f
   11ce6:	29af298f          	.4byte	0x29af298f
   11cea:	5b12                	.2byte	0x5b12
   11cec:	6332                	.2byte	0x6332
   11cee:	6332                	.2byte	0x6332
   11cf0:	b5b96b93          	ori	s7,s2,-1189
   11cf4:	4250298f          	.4byte	0x4250298f
   11cf8:	f79f dedc 298f      	.byte	0x9f, 0xf7, 0xdc, 0xde, 0x8f, 0x29
   11cfe:	298f298f          	.4byte	0x298f298f
   11d02:	defd298f          	.4byte	0xdefd298f
   11d06:	ef7e                	.2byte	0xef7e
   11d08:	298f31cf          	.4byte	0x298f31cf
   11d0c:	298f298f          	.4byte	0x298f298f
   11d10:	a537298f          	.4byte	0xa537298f
   11d14:	ffff                	.2byte	0xffff
   11d16:	ffff                	.2byte	0xffff
   11d18:	ffff                	.2byte	0xffff
   11d1a:	ffff                	.2byte	0xffff
   11d1c:	ffff                	.2byte	0xffff
   11d1e:	ffff                	.2byte	0xffff
   11d20:	ffff                	.2byte	0xffff
   11d22:	ffff                	.2byte	0xffff
   11d24:	ffff                	.2byte	0xffff
   11d26:	ffff                	.2byte	0xffff
   11d28:	ffbc                	.2byte	0xffbc
   11d2a:	feae                	.2byte	0xfeae
   11d2c:	fe40                	.2byte	0xfe40
   11d2e:	fe40                	.2byte	0xfe40
   11d30:	fe40                	.2byte	0xfe40
   11d32:	fe40                	.2byte	0xfe40
   11d34:	fe40                	.2byte	0xfe40
   11d36:	fe40                	.2byte	0xfe40
   11d38:	fe40                	.2byte	0xfe40
   11d3a:	fe40                	.2byte	0xfe40
   11d3c:	fe40                	.2byte	0xfe40
   11d3e:	fe40                	.2byte	0xfe40
   11d40:	fe40                	.2byte	0xfe40
   11d42:	fe40                	.2byte	0xfe40
   11d44:	fe40                	.2byte	0xfe40
   11d46:	fe40                	.2byte	0xfe40
   11d48:	fe40                	.2byte	0xfe40
   11d4a:	fe40                	.2byte	0xfe40
   11d4c:	fe40                	.2byte	0xfe40
   11d4e:	fe40                	.2byte	0xfe40
   11d50:	fe40                	.2byte	0xfe40
   11d52:	fe40                	.2byte	0xfe40
   11d54:	fe40                	.2byte	0xfe40
   11d56:	fe40                	.2byte	0xfe40
   11d58:	fe40                	.2byte	0xfe40
   11d5a:	fe40                	.2byte	0xfe40
   11d5c:	fe40                	.2byte	0xfe40
   11d5e:	fe40                	.2byte	0xfe40
   11d60:	fe40                	.2byte	0xfe40
   11d62:	fe40                	.2byte	0xfe40
   11d64:	fe40                	.2byte	0xfe40
   11d66:	fe40                	.2byte	0xfe40
   11d68:	fe40                	.2byte	0xfe40
   11d6a:	fe40                	.2byte	0xfe40
   11d6c:	fe40                	.2byte	0xfe40
   11d6e:	fe40                	.2byte	0xfe40
   11d70:	fe40                	.2byte	0xfe40
   11d72:	fe40                	.2byte	0xfe40
   11d74:	fe40                	.2byte	0xfe40
   11d76:	fe40                	.2byte	0xfe40
   11d78:	fe40                	.2byte	0xfe40
   11d7a:	fe40                	.2byte	0xfe40
   11d7c:	fe40                	.2byte	0xfe40
   11d7e:	fe40                	.2byte	0xfe40
   11d80:	fe40                	.2byte	0xfe40
   11d82:	fe40                	.2byte	0xfe40
   11d84:	fe40                	.2byte	0xfe40
   11d86:	fe40                	.2byte	0xfe40
   11d88:	fe40                	.2byte	0xfe40
   11d8a:	fe40                	.2byte	0xfe40
   11d8c:	fe40                	.2byte	0xfe40
   11d8e:	fe40                	.2byte	0xfe40
   11d90:	fef1                	.2byte	0xfef1
   11d92:	ffff                	.2byte	0xffff
   11d94:	ffff                	.2byte	0xffff
   11d96:	ffff                	.2byte	0xffff
   11d98:	9496                	.2byte	0x9496
   11d9a:	9496                	.2byte	0x9496
   11d9c:	9496                	.2byte	0x9496
   11d9e:	9496                	.2byte	0x9496
   11da0:	9496                	.2byte	0x9496
   11da2:	298f298f          	.4byte	0x298f298f
   11da6:	298f298f          	.4byte	0x298f298f
   11daa:	298f298f          	.4byte	0x298f298f
   11dae:	4230298f          	.4byte	0x4230298f
   11db2:	298fa517          	auipc	a0,0x298fa
   11db6:	4250                	.2byte	0x4250
   11db8:	f79f dedc 298f      	.byte	0x9f, 0xf7, 0xdc, 0xde, 0x8f, 0x29
   11dbe:	298f298f          	.4byte	0x298f298f
   11dc2:	defd298f          	.4byte	0xdefd298f
   11dc6:	ef7e                	.2byte	0xef7e
   11dc8:	298f31cf          	.4byte	0x298f31cf
   11dcc:	298f298f          	.4byte	0x298f298f
   11dd0:	a537298f          	.4byte	0xa537298f
   11dd4:	ffff                	.2byte	0xffff
   11dd6:	ffff                	.2byte	0xffff
   11dd8:	ffff                	.2byte	0xffff
   11dda:	ffff                	.2byte	0xffff
   11ddc:	ffff                	.2byte	0xffff
   11dde:	ffff                	.2byte	0xffff
   11de0:	ffff                	.2byte	0xffff
   11de2:	ffff                	.2byte	0xffff
   11de4:	ffff                	.2byte	0xffff
   11de6:	ffff                	.2byte	0xffff
   11de8:	ffff                	.2byte	0xffff
   11dea:	ffff                	.2byte	0xffff
   11dec:	ff35                	.2byte	0xff35
   11dee:	fe44                	.2byte	0xfe44
   11df0:	fe40                	.2byte	0xfe40
   11df2:	fe40                	.2byte	0xfe40
   11df4:	fe40                	.2byte	0xfe40
   11df6:	fe40                	.2byte	0xfe40
   11df8:	fe40                	.2byte	0xfe40
   11dfa:	fe40                	.2byte	0xfe40
   11dfc:	fe40                	.2byte	0xfe40
   11dfe:	fe40                	.2byte	0xfe40
   11e00:	fe40                	.2byte	0xfe40
   11e02:	fe40                	.2byte	0xfe40
   11e04:	fe40                	.2byte	0xfe40
   11e06:	fe40                	.2byte	0xfe40
   11e08:	fe40                	.2byte	0xfe40
   11e0a:	fe40                	.2byte	0xfe40
   11e0c:	fe40                	.2byte	0xfe40
   11e0e:	fe40                	.2byte	0xfe40
   11e10:	fe40                	.2byte	0xfe40
   11e12:	fe40                	.2byte	0xfe40
   11e14:	fe40                	.2byte	0xfe40
   11e16:	fe40                	.2byte	0xfe40
   11e18:	fe40                	.2byte	0xfe40
   11e1a:	fe40                	.2byte	0xfe40
   11e1c:	fe40                	.2byte	0xfe40
   11e1e:	fe40                	.2byte	0xfe40
   11e20:	fe40                	.2byte	0xfe40
   11e22:	fe40                	.2byte	0xfe40
   11e24:	fe40                	.2byte	0xfe40
   11e26:	fe40                	.2byte	0xfe40
   11e28:	fe40                	.2byte	0xfe40
   11e2a:	fe40                	.2byte	0xfe40
   11e2c:	fe40                	.2byte	0xfe40
   11e2e:	fe40                	.2byte	0xfe40
   11e30:	fe40                	.2byte	0xfe40
   11e32:	fe40                	.2byte	0xfe40
   11e34:	fe40                	.2byte	0xfe40
   11e36:	fe40                	.2byte	0xfe40
   11e38:	fe40                	.2byte	0xfe40
   11e3a:	fe40                	.2byte	0xfe40
   11e3c:	fe40                	.2byte	0xfe40
   11e3e:	fe40                	.2byte	0xfe40
   11e40:	fe40                	.2byte	0xfe40
   11e42:	fe40                	.2byte	0xfe40
   11e44:	fe40                	.2byte	0xfe40
   11e46:	fe40                	.2byte	0xfe40
   11e48:	fe40                	.2byte	0xfe40
   11e4a:	fe40                	.2byte	0xfe40
   11e4c:	fe40                	.2byte	0xfe40
   11e4e:	fe40                	.2byte	0xfe40
   11e50:	fef1                	.2byte	0xfef1
   11e52:	ffff                	.2byte	0xffff
   11e54:	ffff                	.2byte	0xffff
   11e56:	ffff                	.2byte	0xffff
   11e58:	9496                	.2byte	0x9496
   11e5a:	9496                	.2byte	0x9496
   11e5c:	9496                	.2byte	0x9496
   11e5e:	9496                	.2byte	0x9496
   11e60:	9496                	.2byte	0x9496
   11e62:	298f298f          	.4byte	0x298f298f
   11e66:	298f298f          	.4byte	0x298f298f
   11e6a:	298f298f          	.4byte	0x298f298f
   11e6e:	298f298f          	.4byte	0x298f298f
   11e72:	298f29af          	.4byte	0x298f29af
   11e76:	4250                	.2byte	0x4250
   11e78:	f79f dedc 298f      	.byte	0x9f, 0xf7, 0xdc, 0xde, 0x8f, 0x29
   11e7e:	298f298f          	.4byte	0x298f298f
   11e82:	defd298f          	.4byte	0xdefd298f
   11e86:	ef7e                	.2byte	0xef7e
   11e88:	298f31cf          	.4byte	0x298f31cf
   11e8c:	298f298f          	.4byte	0x298f298f
   11e90:	a537298f          	.4byte	0xa537298f
   11e94:	ffff                	.2byte	0xffff
   11e96:	ffff                	.2byte	0xffff
   11e98:	ffff                	.2byte	0xffff
   11e9a:	ffff                	.2byte	0xffff
   11e9c:	ffff                	.2byte	0xffff
   11e9e:	ffff                	.2byte	0xffff
   11ea0:	ffff                	.2byte	0xffff
   11ea2:	ffff                	.2byte	0xffff
   11ea4:	ffff                	.2byte	0xffff
   11ea6:	ffff                	.2byte	0xffff
   11ea8:	ffff                	.2byte	0xffff
   11eaa:	ffff                	.2byte	0xffff
   11eac:	ffff                	.2byte	0xffff
   11eae:	ff9a                	.2byte	0xff9a
   11eb0:	fe40fe8b          	.4byte	0xfe40fe8b
   11eb4:	fe40                	.2byte	0xfe40
   11eb6:	fe40                	.2byte	0xfe40
   11eb8:	fe40                	.2byte	0xfe40
   11eba:	fe40                	.2byte	0xfe40
   11ebc:	fe40                	.2byte	0xfe40
   11ebe:	fe40                	.2byte	0xfe40
   11ec0:	fe40                	.2byte	0xfe40
   11ec2:	fe40                	.2byte	0xfe40
   11ec4:	fe40                	.2byte	0xfe40
   11ec6:	fe40                	.2byte	0xfe40
   11ec8:	fe40                	.2byte	0xfe40
   11eca:	fe40                	.2byte	0xfe40
   11ecc:	fe40                	.2byte	0xfe40
   11ece:	fe40                	.2byte	0xfe40
   11ed0:	fe40                	.2byte	0xfe40
   11ed2:	fe40                	.2byte	0xfe40
   11ed4:	fe40                	.2byte	0xfe40
   11ed6:	fe40                	.2byte	0xfe40
   11ed8:	fe40                	.2byte	0xfe40
   11eda:	fe40                	.2byte	0xfe40
   11edc:	fe40                	.2byte	0xfe40
   11ede:	fe40                	.2byte	0xfe40
   11ee0:	fe40                	.2byte	0xfe40
   11ee2:	fe40                	.2byte	0xfe40
   11ee4:	fe40                	.2byte	0xfe40
   11ee6:	fe40                	.2byte	0xfe40
   11ee8:	fe40                	.2byte	0xfe40
   11eea:	fe40                	.2byte	0xfe40
   11eec:	fe40                	.2byte	0xfe40
   11eee:	fe40                	.2byte	0xfe40
   11ef0:	fe40                	.2byte	0xfe40
   11ef2:	fe40                	.2byte	0xfe40
   11ef4:	fe40                	.2byte	0xfe40
   11ef6:	fe40                	.2byte	0xfe40
   11ef8:	fe40                	.2byte	0xfe40
   11efa:	fe40                	.2byte	0xfe40
   11efc:	fe40                	.2byte	0xfe40
   11efe:	fe40                	.2byte	0xfe40
   11f00:	fe40                	.2byte	0xfe40
   11f02:	fe40                	.2byte	0xfe40
   11f04:	fe40                	.2byte	0xfe40
   11f06:	fe40                	.2byte	0xfe40
   11f08:	fe40                	.2byte	0xfe40
   11f0a:	fe40                	.2byte	0xfe40
   11f0c:	fe40                	.2byte	0xfe40
   11f0e:	fe40                	.2byte	0xfe40
   11f10:	fef1                	.2byte	0xfef1
   11f12:	ffff                	.2byte	0xffff
   11f14:	ffff                	.2byte	0xffff
   11f16:	ffff                	.2byte	0xffff
   11f18:	9496                	.2byte	0x9496
   11f1a:	9496                	.2byte	0x9496
   11f1c:	9496                	.2byte	0x9496
   11f1e:	9496                	.2byte	0x9496
   11f20:	9496                	.2byte	0x9496
   11f22:	298f298f          	.4byte	0x298f298f
   11f26:	3a10298f          	.4byte	0x3a10298f
   11f2a:	b5b9                	.2byte	0xb5b9
   11f2c:	bdfa                	.2byte	0xbdfa
   11f2e:	bdfa                	.2byte	0xbdfa
   11f30:	bdfa                	.2byte	0xbdfa
   11f32:	94b6                	.2byte	0x94b6
   11f34:	4250298f          	.4byte	0x4250298f
   11f38:	f79f dedc 298f      	.byte	0x9f, 0xf7, 0xdc, 0xde, 0x8f, 0x29
   11f3e:	298f298f          	.4byte	0x298f298f
   11f42:	defd298f          	.4byte	0xdefd298f
   11f46:	ef7e                	.2byte	0xef7e
   11f48:	298f31cf          	.4byte	0x298f31cf
   11f4c:	298f298f          	.4byte	0x298f298f
   11f50:	73b3298f          	.4byte	0x73b3298f
   11f54:	ef7e                	.2byte	0xef7e
   11f56:	ffff                	.2byte	0xffff
   11f58:	ffff                	.2byte	0xffff
   11f5a:	ffff                	.2byte	0xffff
   11f5c:	ffff                	.2byte	0xffff
   11f5e:	ffff                	.2byte	0xffff
   11f60:	ffff                	.2byte	0xffff
   11f62:	ffff                	.2byte	0xffff
   11f64:	ffff                	.2byte	0xffff
   11f66:	ffff                	.2byte	0xffff
   11f68:	ffff                	.2byte	0xffff
   11f6a:	ffff                	.2byte	0xffff
   11f6c:	ffff                	.2byte	0xffff
   11f6e:	ffff                	.2byte	0xffff
   11f70:	fffe                	.2byte	0xfffe
   11f72:	fef2                	.2byte	0xfef2
   11f74:	fe41                	.2byte	0xfe41
   11f76:	fe40                	.2byte	0xfe40
   11f78:	fe40                	.2byte	0xfe40
   11f7a:	fe40                	.2byte	0xfe40
   11f7c:	fe40                	.2byte	0xfe40
   11f7e:	fe40                	.2byte	0xfe40
   11f80:	fe40                	.2byte	0xfe40
   11f82:	fe40                	.2byte	0xfe40
   11f84:	fe40                	.2byte	0xfe40
   11f86:	fe40                	.2byte	0xfe40
   11f88:	fe40                	.2byte	0xfe40
   11f8a:	fe40                	.2byte	0xfe40
   11f8c:	fe40                	.2byte	0xfe40
   11f8e:	fe40                	.2byte	0xfe40
   11f90:	fe40                	.2byte	0xfe40
   11f92:	fe40                	.2byte	0xfe40
   11f94:	fe40                	.2byte	0xfe40
   11f96:	fe40                	.2byte	0xfe40
   11f98:	fe40                	.2byte	0xfe40
   11f9a:	fe40                	.2byte	0xfe40
   11f9c:	fe40                	.2byte	0xfe40
   11f9e:	fe40                	.2byte	0xfe40
   11fa0:	fe40                	.2byte	0xfe40
   11fa2:	fe40                	.2byte	0xfe40
   11fa4:	fe40                	.2byte	0xfe40
   11fa6:	fe40                	.2byte	0xfe40
   11fa8:	fe40                	.2byte	0xfe40
   11faa:	fe40                	.2byte	0xfe40
   11fac:	fe40                	.2byte	0xfe40
   11fae:	fe40                	.2byte	0xfe40
   11fb0:	fe40                	.2byte	0xfe40
   11fb2:	fe40                	.2byte	0xfe40
   11fb4:	fe40                	.2byte	0xfe40
   11fb6:	fe40                	.2byte	0xfe40
   11fb8:	fe40                	.2byte	0xfe40
   11fba:	fe40                	.2byte	0xfe40
   11fbc:	fe40                	.2byte	0xfe40
   11fbe:	fe40                	.2byte	0xfe40
   11fc0:	fe40                	.2byte	0xfe40
   11fc2:	fe40                	.2byte	0xfe40
   11fc4:	fe40                	.2byte	0xfe40
   11fc6:	fe40                	.2byte	0xfe40
   11fc8:	fe40                	.2byte	0xfe40
   11fca:	fe40                	.2byte	0xfe40
   11fcc:	fe40                	.2byte	0xfe40
   11fce:	fe40                	.2byte	0xfe40
   11fd0:	fef1                	.2byte	0xfef1
   11fd2:	ffff                	.2byte	0xffff
   11fd4:	ffff                	.2byte	0xffff
   11fd6:	ffff                	.2byte	0xffff
   11fd8:	9496                	.2byte	0x9496
   11fda:	9496                	.2byte	0x9496
   11fdc:	9496                	.2byte	0x9496
   11fde:	9496                	.2byte	0x9496
   11fe0:	9496                	.2byte	0x9496
   11fe2:	298f298f          	.4byte	0x298f298f
   11fe6:	298f298f          	.4byte	0x298f298f
   11fea:	4a70                	.2byte	0x4a70
   11fec:	4a70                	.2byte	0x4a70
   11fee:	4a70                	.2byte	0x4a70
   11ff0:	4a70                	.2byte	0x4a70
   11ff2:	3a10                	.2byte	0x3a10
   11ff4:	4250298f          	.4byte	0x4250298f
   11ff8:	f79f dedc 298f      	.byte	0x9f, 0xf7, 0xdc, 0xde, 0x8f, 0x29
   11ffe:	298f298f          	.4byte	0x298f298f
   12002:	defd298f          	.4byte	0xdefd298f
   12006:	ef7e                	.2byte	0xef7e
   12008:	298f31cf          	.4byte	0x298f31cf
   1200c:	298f298f          	.4byte	0x298f298f
   12010:	298f298f          	.4byte	0x298f298f
   12014:	52d1                	.2byte	0x52d1
   12016:	ffffd69b          	.4byte	0xffffd69b
   1201a:	ffff                	.2byte	0xffff
   1201c:	ffff                	.2byte	0xffff
   1201e:	ffff                	.2byte	0xffff
   12020:	ffff                	.2byte	0xffff
   12022:	ffff                	.2byte	0xffff
   12024:	ffff                	.2byte	0xffff
   12026:	ffff                	.2byte	0xffff
   12028:	ffff                	.2byte	0xffff
   1202a:	ffff                	.2byte	0xffff
   1202c:	ffff                	.2byte	0xffff
   1202e:	ffff                	.2byte	0xffff
   12030:	ffff                	.2byte	0xffff
   12032:	ffff                	.2byte	0xffff
   12034:	ff78                	.2byte	0xff78
   12036:	fe40fe67          	.4byte	0xfe40fe67
   1203a:	fe40                	.2byte	0xfe40
   1203c:	fe40                	.2byte	0xfe40
   1203e:	fe40                	.2byte	0xfe40
   12040:	fe40                	.2byte	0xfe40
   12042:	fe40                	.2byte	0xfe40
   12044:	fe40                	.2byte	0xfe40
   12046:	fe40                	.2byte	0xfe40
   12048:	fe40                	.2byte	0xfe40
   1204a:	fe40                	.2byte	0xfe40
   1204c:	fe40                	.2byte	0xfe40
   1204e:	fe40                	.2byte	0xfe40
   12050:	fe40                	.2byte	0xfe40
   12052:	fe40                	.2byte	0xfe40
   12054:	fe40                	.2byte	0xfe40
   12056:	fe40                	.2byte	0xfe40
   12058:	fe40                	.2byte	0xfe40
   1205a:	fe40                	.2byte	0xfe40
   1205c:	fe40                	.2byte	0xfe40
   1205e:	fe40                	.2byte	0xfe40
   12060:	fe40                	.2byte	0xfe40
   12062:	fe40                	.2byte	0xfe40
   12064:	fe40                	.2byte	0xfe40
   12066:	fe40                	.2byte	0xfe40
   12068:	fe40                	.2byte	0xfe40
   1206a:	fe40                	.2byte	0xfe40
   1206c:	fe40                	.2byte	0xfe40
   1206e:	fe40                	.2byte	0xfe40
   12070:	fe40                	.2byte	0xfe40
   12072:	fe40                	.2byte	0xfe40
   12074:	fe40                	.2byte	0xfe40
   12076:	fe40                	.2byte	0xfe40
   12078:	fe40                	.2byte	0xfe40
   1207a:	fe40                	.2byte	0xfe40
   1207c:	fe40                	.2byte	0xfe40
   1207e:	fe40                	.2byte	0xfe40
   12080:	fe40                	.2byte	0xfe40
   12082:	fe40                	.2byte	0xfe40
   12084:	fe40                	.2byte	0xfe40
   12086:	fe40                	.2byte	0xfe40
   12088:	fe40                	.2byte	0xfe40
   1208a:	fe40                	.2byte	0xfe40
   1208c:	fe40                	.2byte	0xfe40
   1208e:	fe40                	.2byte	0xfe40
   12090:	fef1                	.2byte	0xfef1
   12092:	ffff                	.2byte	0xffff
   12094:	ffff                	.2byte	0xffff
   12096:	ffff                	.2byte	0xffff
   12098:	9496                	.2byte	0x9496
   1209a:	9496                	.2byte	0x9496
   1209c:	9496                	.2byte	0x9496
   1209e:	9496                	.2byte	0x9496
   120a0:	9496                	.2byte	0x9496
   120a2:	298f298f          	.4byte	0x298f298f
   120a6:	298f298f          	.4byte	0x298f298f
   120aa:	4250                	.2byte	0x4250
   120ac:	4a70                	.2byte	0x4a70
   120ae:	4a70                	.2byte	0x4a70
   120b0:	4a70                	.2byte	0x4a70
   120b2:	3a10                	.2byte	0x3a10
   120b4:	39ef298f          	.4byte	0x39ef298f
   120b8:	b5b9                	.2byte	0xb5b9
   120ba:	298fa537          	lui	a0,0x298fa
   120be:	298f298f          	.4byte	0x298f298f
   120c2:	a537298f          	.4byte	0xa537298f
   120c6:	b598                	.2byte	0xb598
   120c8:	298f31af          	.4byte	0x298f31af
   120cc:	298f298f          	.4byte	0x298f298f
   120d0:	298f298f          	.4byte	0x298f298f
   120d4:	31cf298f          	.4byte	0x31cf298f
   120d8:	ad58                	.2byte	0xad58
   120da:	ffffffbf ffffffff 	.8byte	0xffffffffffffffbf
   120e2:	ffff                	.2byte	0xffff
   120e4:	ffff                	.2byte	0xffff
   120e6:	ffff                	.2byte	0xffff
   120e8:	ffff                	.2byte	0xffff
   120ea:	ffff                	.2byte	0xffff
   120ec:	ffff                	.2byte	0xffff
   120ee:	ffff                	.2byte	0xffff
   120f0:	ffff                	.2byte	0xffff
   120f2:	ffff                	.2byte	0xffff
   120f4:	ffff                	.2byte	0xffff
   120f6:	ffdd                	.2byte	0xffdd
   120f8:	fe40fecf          	.4byte	0xfe40fecf
   120fc:	fe40                	.2byte	0xfe40
   120fe:	fe40                	.2byte	0xfe40
   12100:	fe40                	.2byte	0xfe40
   12102:	fe40                	.2byte	0xfe40
   12104:	fe40                	.2byte	0xfe40
   12106:	fe40                	.2byte	0xfe40
   12108:	fe40                	.2byte	0xfe40
   1210a:	fe40                	.2byte	0xfe40
   1210c:	fe40                	.2byte	0xfe40
   1210e:	fe40                	.2byte	0xfe40
   12110:	fe40                	.2byte	0xfe40
   12112:	fe40                	.2byte	0xfe40
   12114:	fe40                	.2byte	0xfe40
   12116:	fe40                	.2byte	0xfe40
   12118:	fe40                	.2byte	0xfe40
   1211a:	fe40                	.2byte	0xfe40
   1211c:	fe40                	.2byte	0xfe40
   1211e:	fe40                	.2byte	0xfe40
   12120:	fe40                	.2byte	0xfe40
   12122:	fe40                	.2byte	0xfe40
   12124:	fe40                	.2byte	0xfe40
   12126:	fe40                	.2byte	0xfe40
   12128:	fe40                	.2byte	0xfe40
   1212a:	fe40                	.2byte	0xfe40
   1212c:	fe40                	.2byte	0xfe40
   1212e:	fe40                	.2byte	0xfe40
   12130:	fe40                	.2byte	0xfe40
   12132:	fe40                	.2byte	0xfe40
   12134:	fe40                	.2byte	0xfe40
   12136:	fe40                	.2byte	0xfe40
   12138:	fe40                	.2byte	0xfe40
   1213a:	fe40                	.2byte	0xfe40
   1213c:	fe40                	.2byte	0xfe40
   1213e:	fe40                	.2byte	0xfe40
   12140:	fe40                	.2byte	0xfe40
   12142:	fe40                	.2byte	0xfe40
   12144:	fe40                	.2byte	0xfe40
   12146:	fe40                	.2byte	0xfe40
   12148:	fe40                	.2byte	0xfe40
   1214a:	fe40                	.2byte	0xfe40
   1214c:	fe40                	.2byte	0xfe40
   1214e:	fe40                	.2byte	0xfe40
   12150:	fef1                	.2byte	0xfef1
   12152:	ffff                	.2byte	0xffff
   12154:	ffff                	.2byte	0xffff
   12156:	ffff                	.2byte	0xffff
   12158:	9496                	.2byte	0x9496
   1215a:	9496                	.2byte	0x9496
   1215c:	9496                	.2byte	0x9496
   1215e:	9496                	.2byte	0x9496
   12160:	9496                	.2byte	0x9496
   12162:	298f298f          	.4byte	0x298f298f
   12166:	4250298f          	.4byte	0x4250298f
   1216a:	d69c                	.2byte	0xd69c
   1216c:	c61a                	.2byte	0xc61a
   1216e:	defd                	.2byte	0xdefd
   12170:	c61a                	.2byte	0xc61a
   12172:	b5b9                	.2byte	0xb5b9
   12174:	298f298f          	.4byte	0x298f298f
   12178:	298f298f          	.4byte	0x298f298f
   1217c:	93ab298f          	.4byte	0x93ab298f
   12180:	836c                	.2byte	0x836c
   12182:	298f298f          	.4byte	0x298f298f
   12186:	298f298f          	.4byte	0x298f298f
   1218a:	298f298f          	.4byte	0x298f298f
   1218e:	298f298f          	.4byte	0x298f298f
   12192:	298f298f          	.4byte	0x298f298f
   12196:	298f298f          	.4byte	0x298f298f
   1219a:	e71d73b3          	.4byte	0xe71d73b3
   1219e:	ffff                	.2byte	0xffff
   121a0:	ffff                	.2byte	0xffff
   121a2:	ffff                	.2byte	0xffff
   121a4:	ffff                	.2byte	0xffff
   121a6:	ffff                	.2byte	0xffff
   121a8:	ffff                	.2byte	0xffff
   121aa:	ffff                	.2byte	0xffff
   121ac:	ffff                	.2byte	0xffff
   121ae:	ffff                	.2byte	0xffff
   121b0:	ffff                	.2byte	0xffff
   121b2:	ffff                	.2byte	0xffff
   121b4:	ffff                	.2byte	0xffff
   121b6:	ffff                	.2byte	0xffff
   121b8:	ffff                	.2byte	0xffff
   121ba:	ff56                	.2byte	0xff56
   121bc:	fe45                	.2byte	0xfe45
   121be:	fe40                	.2byte	0xfe40
   121c0:	fe40                	.2byte	0xfe40
   121c2:	fe40                	.2byte	0xfe40
   121c4:	fe40                	.2byte	0xfe40
   121c6:	fe40                	.2byte	0xfe40
   121c8:	fe40                	.2byte	0xfe40
   121ca:	fe40                	.2byte	0xfe40
   121cc:	fe40                	.2byte	0xfe40
   121ce:	fe40                	.2byte	0xfe40
   121d0:	fe40                	.2byte	0xfe40
   121d2:	fe40                	.2byte	0xfe40
   121d4:	fe40                	.2byte	0xfe40
   121d6:	fe40                	.2byte	0xfe40
   121d8:	fe40                	.2byte	0xfe40
   121da:	fe40                	.2byte	0xfe40
   121dc:	fe40                	.2byte	0xfe40
   121de:	fe40                	.2byte	0xfe40
   121e0:	fe40                	.2byte	0xfe40
   121e2:	fe40                	.2byte	0xfe40
   121e4:	fe40                	.2byte	0xfe40
   121e6:	fe40                	.2byte	0xfe40
   121e8:	fe40                	.2byte	0xfe40
   121ea:	fe40                	.2byte	0xfe40
   121ec:	fe40                	.2byte	0xfe40
   121ee:	fe40                	.2byte	0xfe40
   121f0:	fe40                	.2byte	0xfe40
   121f2:	fe40                	.2byte	0xfe40
   121f4:	fe40                	.2byte	0xfe40
   121f6:	fe40                	.2byte	0xfe40
   121f8:	fe40                	.2byte	0xfe40
   121fa:	fe40                	.2byte	0xfe40
   121fc:	fe40                	.2byte	0xfe40
   121fe:	fe40                	.2byte	0xfe40
   12200:	fe40                	.2byte	0xfe40
   12202:	fe40                	.2byte	0xfe40
   12204:	fe40                	.2byte	0xfe40
   12206:	fe40                	.2byte	0xfe40
   12208:	fe40                	.2byte	0xfe40
   1220a:	fe40                	.2byte	0xfe40
   1220c:	fe40                	.2byte	0xfe40
   1220e:	fe40                	.2byte	0xfe40
   12210:	fef1                	.2byte	0xfef1
   12212:	ffff                	.2byte	0xffff
   12214:	ffff                	.2byte	0xffff
   12216:	ffff                	.2byte	0xffff
   12218:	9496                	.2byte	0x9496
   1221a:	9496                	.2byte	0x9496
   1221c:	9496                	.2byte	0x9496
   1221e:	9496                	.2byte	0x9496
   12220:	9496                	.2byte	0x9496
   12222:	298f298f          	.4byte	0x298f298f
   12226:	4a70298f          	.4byte	0x4a70298f
   1222a:	b598                	.2byte	0xb598
   1222c:	b5d931cf          	.4byte	0xb5d931cf
   12230:	4a70                	.2byte	0x4a70
   12232:	b599                	.2byte	0xb599
   12234:	298f298f          	.4byte	0x298f298f
   12238:	298f298f          	.4byte	0x298f298f
   1223c:	298e                	.2byte	0x298e
   1223e:	e585                	.2byte	0xe585
   12240:	298fd527          	.4byte	0x298fd527
   12244:	298f298f          	.4byte	0x298f298f
   12248:	298f298f          	.4byte	0x298f298f
   1224c:	298f298f          	.4byte	0x298f298f
   12250:	298f298f          	.4byte	0x298f298f
   12254:	298f298f          	.4byte	0x298f298f
   12258:	298f298f          	.4byte	0x298f298f
   1225c:	4250                	.2byte	0x4250
   1225e:	bdfa                	.2byte	0xbdfa
   12260:	ffff                	.2byte	0xffff
   12262:	ffff                	.2byte	0xffff
   12264:	ffff                	.2byte	0xffff
   12266:	ffff                	.2byte	0xffff
   12268:	ffff                	.2byte	0xffff
   1226a:	ffff                	.2byte	0xffff
   1226c:	ffff                	.2byte	0xffff
   1226e:	ffff                	.2byte	0xffff
   12270:	ffff                	.2byte	0xffff
   12272:	ffff                	.2byte	0xffff
   12274:	ffff                	.2byte	0xffff
   12276:	ffff                	.2byte	0xffff
   12278:	ffff                	.2byte	0xffff
   1227a:	ffff                	.2byte	0xffff
   1227c:	feacffbb          	.4byte	0xfeacffbb
   12280:	fe40                	.2byte	0xfe40
   12282:	fe40                	.2byte	0xfe40
   12284:	fe40                	.2byte	0xfe40
   12286:	fe40                	.2byte	0xfe40
   12288:	fe40                	.2byte	0xfe40
   1228a:	fe40                	.2byte	0xfe40
   1228c:	fe40                	.2byte	0xfe40
   1228e:	fe40                	.2byte	0xfe40
   12290:	fe40                	.2byte	0xfe40
   12292:	fe40                	.2byte	0xfe40
   12294:	fe40                	.2byte	0xfe40
   12296:	fe40                	.2byte	0xfe40
   12298:	fe40                	.2byte	0xfe40
   1229a:	fe40                	.2byte	0xfe40
   1229c:	fe40                	.2byte	0xfe40
   1229e:	fe40                	.2byte	0xfe40
   122a0:	fe40                	.2byte	0xfe40
   122a2:	fe40                	.2byte	0xfe40
   122a4:	fe40                	.2byte	0xfe40
   122a6:	fe40                	.2byte	0xfe40
   122a8:	fe40                	.2byte	0xfe40
   122aa:	fe40                	.2byte	0xfe40
   122ac:	fe40                	.2byte	0xfe40
   122ae:	fe40                	.2byte	0xfe40
   122b0:	fe40                	.2byte	0xfe40
   122b2:	fe40                	.2byte	0xfe40
   122b4:	fe40                	.2byte	0xfe40
   122b6:	fe40                	.2byte	0xfe40
   122b8:	fe40                	.2byte	0xfe40
   122ba:	fe40                	.2byte	0xfe40
   122bc:	fe40                	.2byte	0xfe40
   122be:	fe40                	.2byte	0xfe40
   122c0:	fe40                	.2byte	0xfe40
   122c2:	fe40                	.2byte	0xfe40
   122c4:	fe40                	.2byte	0xfe40
   122c6:	fe40                	.2byte	0xfe40
   122c8:	fe40                	.2byte	0xfe40
   122ca:	fe40                	.2byte	0xfe40
   122cc:	fe40                	.2byte	0xfe40
   122ce:	fe40                	.2byte	0xfe40
   122d0:	fef1                	.2byte	0xfef1
   122d2:	ffff                	.2byte	0xffff
   122d4:	ffff                	.2byte	0xffff
   122d6:	ffff                	.2byte	0xffff
   122d8:	9496                	.2byte	0x9496
   122da:	9496                	.2byte	0x9496
   122dc:	9496                	.2byte	0x9496
   122de:	9496                	.2byte	0x9496
   122e0:	9496                	.2byte	0x9496
   122e2:	298f298f          	.4byte	0x298f298f
   122e6:	4270298f          	.4byte	0x4270298f
   122ea:	b599                	.2byte	0xb599
   122ec:	bdfa31cf          	.4byte	0xbdfa31cf
   122f0:	4a71                	.2byte	0x4a71
   122f2:	b599                	.2byte	0xb599
   122f4:	298f298f          	.4byte	0x298f298f
   122f8:	298f298f          	.4byte	0x298f298f
   122fc:	298e                	.2byte	0x298e
   122fe:	e585                	.2byte	0xe585
   12300:	298fd527          	.4byte	0x298fd527
   12304:	298f298f          	.4byte	0x298f298f
   12308:	298f298f          	.4byte	0x298f298f
   1230c:	298f298f          	.4byte	0x298f298f
   12310:	298f298f          	.4byte	0x298f298f
   12314:	298f298f          	.4byte	0x298f298f
   12318:	298f298f          	.4byte	0x298f298f
   1231c:	298f298f          	.4byte	0x298f298f
   12320:	8c95                	.2byte	0x8c95
   12322:	f77e                	.2byte	0xf77e
   12324:	ffff                	.2byte	0xffff
   12326:	ffff                	.2byte	0xffff
   12328:	ffff                	.2byte	0xffff
   1232a:	ffff                	.2byte	0xffff
   1232c:	ffff                	.2byte	0xffff
   1232e:	ffff                	.2byte	0xffff
   12330:	ffff                	.2byte	0xffff
   12332:	ffff                	.2byte	0xffff
   12334:	ffff                	.2byte	0xffff
   12336:	ffff                	.2byte	0xffff
   12338:	ffff                	.2byte	0xffff
   1233a:	ffff                	.2byte	0xffff
   1233c:	ffff                	.2byte	0xffff
   1233e:	fffe                	.2byte	0xfffe
   12340:	fe42ff13          	andi	t5,t0,-28
   12344:	fe40                	.2byte	0xfe40
   12346:	fe40                	.2byte	0xfe40
   12348:	fe40                	.2byte	0xfe40
   1234a:	fe40                	.2byte	0xfe40
   1234c:	fe40                	.2byte	0xfe40
   1234e:	fe40                	.2byte	0xfe40
   12350:	fe40                	.2byte	0xfe40
   12352:	fe40                	.2byte	0xfe40
   12354:	fe40                	.2byte	0xfe40
   12356:	fe40                	.2byte	0xfe40
   12358:	fe40                	.2byte	0xfe40
   1235a:	fe40                	.2byte	0xfe40
   1235c:	fe40                	.2byte	0xfe40
   1235e:	fe40                	.2byte	0xfe40
   12360:	fe40                	.2byte	0xfe40
   12362:	fe40                	.2byte	0xfe40
   12364:	fe40                	.2byte	0xfe40
   12366:	fe40                	.2byte	0xfe40
   12368:	fe40                	.2byte	0xfe40
   1236a:	fe40                	.2byte	0xfe40
   1236c:	fe40                	.2byte	0xfe40
   1236e:	fe40                	.2byte	0xfe40
   12370:	fe40                	.2byte	0xfe40
   12372:	fe40                	.2byte	0xfe40
   12374:	fe40                	.2byte	0xfe40
   12376:	fe40                	.2byte	0xfe40
   12378:	fe40                	.2byte	0xfe40
   1237a:	fe40                	.2byte	0xfe40
   1237c:	fe40                	.2byte	0xfe40
   1237e:	fe40                	.2byte	0xfe40
   12380:	fe40                	.2byte	0xfe40
   12382:	fe40                	.2byte	0xfe40
   12384:	fe40                	.2byte	0xfe40
   12386:	fe40                	.2byte	0xfe40
   12388:	fe40                	.2byte	0xfe40
   1238a:	fe40                	.2byte	0xfe40
   1238c:	fe40                	.2byte	0xfe40
   1238e:	fe40                	.2byte	0xfe40
   12390:	fef1                	.2byte	0xfef1
   12392:	ffff                	.2byte	0xffff
   12394:	ffff                	.2byte	0xffff
   12396:	ffff                	.2byte	0xffff
   12398:	9496                	.2byte	0x9496
   1239a:	9496                	.2byte	0x9496
   1239c:	9496                	.2byte	0x9496
   1239e:	9496                	.2byte	0x9496
   123a0:	9496                	.2byte	0x9496
   123a2:	298f298f          	.4byte	0x298f298f
   123a6:	31cf298f          	.4byte	0x31cf298f
   123aa:	bdfac63b          	.4byte	0xbdfac63b
   123ae:	ce5bc63b          	.4byte	0xce5bc63b
   123b2:	94b6                	.2byte	0x94b6
   123b4:	298f298f          	.4byte	0x298f298f
   123b8:	298f298f          	.4byte	0x298f298f
   123bc:	298e                	.2byte	0x298e
   123be:	d506                	.2byte	0xd506
   123c0:	bca8                	.2byte	0xbca8
   123c2:	39ce298f          	.4byte	0x39ce298f
   123c6:	31ae8b8b          	.4byte	0x31ae8b8b
   123ca:	298f298f          	.4byte	0x298f298f
   123ce:	298f298f          	.4byte	0x298f298f
   123d2:	298f298f          	.4byte	0x298f298f
   123d6:	298f298f          	.4byte	0x298f298f
   123da:	298f298f          	.4byte	0x298f298f
   123de:	298f298f          	.4byte	0x298f298f
   123e2:	5af2                	.2byte	0x5af2
   123e4:	d69c                	.2byte	0xd69c
   123e6:	ffff                	.2byte	0xffff
   123e8:	ffff                	.2byte	0xffff
   123ea:	ffff                	.2byte	0xffff
   123ec:	ffff                	.2byte	0xffff
   123ee:	ffff                	.2byte	0xffff
   123f0:	ffff                	.2byte	0xffff
   123f2:	ffff                	.2byte	0xffff
   123f4:	ffff                	.2byte	0xffff
   123f6:	ffff                	.2byte	0xffff
   123f8:	ffff                	.2byte	0xffff
   123fa:	ffff                	.2byte	0xffff
   123fc:	ffff                	.2byte	0xffff
   123fe:	ffff                	.2byte	0xffff
   12400:	ffff                	.2byte	0xffff
   12402:	ff99                	.2byte	0xff99
   12404:	fe89                	.2byte	0xfe89
   12406:	fe40                	.2byte	0xfe40
   12408:	fe40                	.2byte	0xfe40
   1240a:	fe40                	.2byte	0xfe40
   1240c:	fe40                	.2byte	0xfe40
   1240e:	fe40                	.2byte	0xfe40
   12410:	fe40                	.2byte	0xfe40
   12412:	fe40                	.2byte	0xfe40
   12414:	fe40                	.2byte	0xfe40
   12416:	fe40                	.2byte	0xfe40
   12418:	fe40                	.2byte	0xfe40
   1241a:	fe40                	.2byte	0xfe40
   1241c:	fe40                	.2byte	0xfe40
   1241e:	fe40                	.2byte	0xfe40
   12420:	fe40                	.2byte	0xfe40
   12422:	fe40                	.2byte	0xfe40
   12424:	fe40                	.2byte	0xfe40
   12426:	fe40                	.2byte	0xfe40
   12428:	fe40                	.2byte	0xfe40
   1242a:	fe40                	.2byte	0xfe40
   1242c:	fe40                	.2byte	0xfe40
   1242e:	fe40                	.2byte	0xfe40
   12430:	fe40                	.2byte	0xfe40
   12432:	fe40                	.2byte	0xfe40
   12434:	fe40                	.2byte	0xfe40
   12436:	fe40                	.2byte	0xfe40
   12438:	fe40                	.2byte	0xfe40
   1243a:	fe40                	.2byte	0xfe40
   1243c:	fe40                	.2byte	0xfe40
   1243e:	fe40                	.2byte	0xfe40
   12440:	fe40                	.2byte	0xfe40
   12442:	fe40                	.2byte	0xfe40
   12444:	fe40                	.2byte	0xfe40
   12446:	fe40                	.2byte	0xfe40
   12448:	fe40                	.2byte	0xfe40
   1244a:	fe40                	.2byte	0xfe40
   1244c:	fe40                	.2byte	0xfe40
   1244e:	fe40                	.2byte	0xfe40
   12450:	fef1                	.2byte	0xfef1
   12452:	ffff                	.2byte	0xffff
   12454:	ffff                	.2byte	0xffff
   12456:	ffff                	.2byte	0xffff
   12458:	9496                	.2byte	0x9496
   1245a:	9496                	.2byte	0x9496
   1245c:	9496                	.2byte	0x9496
   1245e:	9496                	.2byte	0x9496
   12460:	9496                	.2byte	0x9496
   12462:	298f298f          	.4byte	0x298f298f
   12466:	298f298f          	.4byte	0x298f298f
   1246a:	4230                	.2byte	0x4230
   1246c:	6352                	.2byte	0x6352
   1246e:	3a1031cf          	.4byte	0x3a1031cf
   12472:	298f298f          	.4byte	0x298f298f
   12476:	298f298f          	.4byte	0x298f298f
   1247a:	298f298f          	.4byte	0x298f298f
   1247e:	31ae                	.2byte	0x31ae
   12480:	31ae                	.2byte	0x31ae
   12482:	836c                	.2byte	0x836c
   12484:	e585                	.2byte	0xe585
   12486:	edc4                	.2byte	0xedc4
   12488:	31ce                	.2byte	0x31ce
   1248a:	298f298f          	.4byte	0x298f298f
   1248e:	298f298f          	.4byte	0x298f298f
   12492:	298f298f          	.4byte	0x298f298f
   12496:	298f298f          	.4byte	0x298f298f
   1249a:	298f298f          	.4byte	0x298f298f
   1249e:	298f298f          	.4byte	0x298f298f
   124a2:	31cf298f          	.4byte	0x31cf298f
   124a6:	ad58                	.2byte	0xad58
   124a8:	ffffffbf ffffffff 	.8byte	0xffffffffffffffbf
   124b0:	ffff                	.2byte	0xffff
   124b2:	ffff                	.2byte	0xffff
   124b4:	ffff                	.2byte	0xffff
   124b6:	ffff                	.2byte	0xffff
   124b8:	ffff                	.2byte	0xffff
   124ba:	ffff                	.2byte	0xffff
   124bc:	ffff                	.2byte	0xffff
   124be:	ffff                	.2byte	0xffff
   124c0:	ffff                	.2byte	0xffff
   124c2:	ffff                	.2byte	0xffff
   124c4:	ffdd                	.2byte	0xffdd
   124c6:	fef0                	.2byte	0xfef0
   124c8:	fe41                	.2byte	0xfe41
   124ca:	fe40                	.2byte	0xfe40
   124cc:	fe40                	.2byte	0xfe40
   124ce:	fe40                	.2byte	0xfe40
   124d0:	fe40                	.2byte	0xfe40
   124d2:	fe40                	.2byte	0xfe40
   124d4:	fe40                	.2byte	0xfe40
   124d6:	fe40                	.2byte	0xfe40
   124d8:	fe40                	.2byte	0xfe40
   124da:	fe40                	.2byte	0xfe40
   124dc:	fe40                	.2byte	0xfe40
   124de:	fe40                	.2byte	0xfe40
   124e0:	fe40                	.2byte	0xfe40
   124e2:	fe40                	.2byte	0xfe40
   124e4:	fe40                	.2byte	0xfe40
   124e6:	fe40                	.2byte	0xfe40
   124e8:	fe40                	.2byte	0xfe40
   124ea:	fe40                	.2byte	0xfe40
   124ec:	fe40                	.2byte	0xfe40
   124ee:	fe40                	.2byte	0xfe40
   124f0:	fe40                	.2byte	0xfe40
   124f2:	fe40                	.2byte	0xfe40
   124f4:	fe40                	.2byte	0xfe40
   124f6:	fe40                	.2byte	0xfe40
   124f8:	fe40                	.2byte	0xfe40
   124fa:	fe40                	.2byte	0xfe40
   124fc:	fe40                	.2byte	0xfe40
   124fe:	fe40                	.2byte	0xfe40
   12500:	fe40                	.2byte	0xfe40
   12502:	fe40                	.2byte	0xfe40
   12504:	fe40                	.2byte	0xfe40
   12506:	fe40                	.2byte	0xfe40
   12508:	fe40                	.2byte	0xfe40
   1250a:	fe40                	.2byte	0xfe40
   1250c:	fe40                	.2byte	0xfe40
   1250e:	fe40                	.2byte	0xfe40
   12510:	fef1                	.2byte	0xfef1
   12512:	ffff                	.2byte	0xffff
   12514:	ffff                	.2byte	0xffff
   12516:	ffff                	.2byte	0xffff
   12518:	9496                	.2byte	0x9496
   1251a:	9496                	.2byte	0x9496
   1251c:	9496                	.2byte	0x9496
   1251e:	9496                	.2byte	0x9496
   12520:	9496                	.2byte	0x9496
   12522:	298f298f          	.4byte	0x298f298f
   12526:	298f298f          	.4byte	0x298f298f
   1252a:	4a71                	.2byte	0x4a71
   1252c:	4a71                	.2byte	0x4a71
   1252e:	4a71                	.2byte	0x4a71
   12530:	4a71                	.2byte	0x4a71
   12532:	3a30                	.2byte	0x3a30
   12534:	298f298f          	.4byte	0x298f298f
   12538:	298f298f          	.4byte	0x298f298f
   1253c:	62ad298f          	.4byte	0x62ad298f
   12540:	fe20cd07          	.4byte	0xfe20cd07
   12544:	fe01                	.2byte	0xfe01
   12546:	b469                	.2byte	0xb469
   12548:	298e                	.2byte	0x298e
   1254a:	298f298f          	.4byte	0x298f298f
   1254e:	298f298f          	.4byte	0x298f298f
   12552:	298f298f          	.4byte	0x298f298f
   12556:	298f298f          	.4byte	0x298f298f
   1255a:	298f298f          	.4byte	0x298f298f
   1255e:	298f298f          	.4byte	0x298f298f
   12562:	298f298f          	.4byte	0x298f298f
   12566:	73b3298f          	.4byte	0x73b3298f
   1256a:	e71d                	.2byte	0xe71d
   1256c:	ffff                	.2byte	0xffff
   1256e:	ffff                	.2byte	0xffff
   12570:	ffff                	.2byte	0xffff
   12572:	ffff                	.2byte	0xffff
   12574:	ffff                	.2byte	0xffff
   12576:	ffff                	.2byte	0xffff
   12578:	ffff                	.2byte	0xffff
   1257a:	ffff                	.2byte	0xffff
   1257c:	ffff                	.2byte	0xffff
   1257e:	ffff                	.2byte	0xffff
   12580:	ffff                	.2byte	0xffff
   12582:	ffff                	.2byte	0xffff
   12584:	ffff                	.2byte	0xffff
   12586:	ffff                	.2byte	0xffff
   12588:	fe66ff57          	.4byte	0xfe66ff57
   1258c:	fe40                	.2byte	0xfe40
   1258e:	fe40                	.2byte	0xfe40
   12590:	fe40                	.2byte	0xfe40
   12592:	fe40                	.2byte	0xfe40
   12594:	fe40                	.2byte	0xfe40
   12596:	fe40                	.2byte	0xfe40
   12598:	fe40                	.2byte	0xfe40
   1259a:	fe40                	.2byte	0xfe40
   1259c:	fe40                	.2byte	0xfe40
   1259e:	fe40                	.2byte	0xfe40
   125a0:	fe40                	.2byte	0xfe40
   125a2:	fe40                	.2byte	0xfe40
   125a4:	fe40                	.2byte	0xfe40
   125a6:	fe40                	.2byte	0xfe40
   125a8:	fe40                	.2byte	0xfe40
   125aa:	fe40                	.2byte	0xfe40
   125ac:	fe40                	.2byte	0xfe40
   125ae:	fe40                	.2byte	0xfe40
   125b0:	fe40                	.2byte	0xfe40
   125b2:	fe40                	.2byte	0xfe40
   125b4:	fe40                	.2byte	0xfe40
   125b6:	fe40                	.2byte	0xfe40
   125b8:	fe40                	.2byte	0xfe40
   125ba:	fe40                	.2byte	0xfe40
   125bc:	fe40                	.2byte	0xfe40
   125be:	fe40                	.2byte	0xfe40
   125c0:	fe40                	.2byte	0xfe40
   125c2:	fe40                	.2byte	0xfe40
   125c4:	fe40                	.2byte	0xfe40
   125c6:	fe40                	.2byte	0xfe40
   125c8:	fe40                	.2byte	0xfe40
   125ca:	fe40                	.2byte	0xfe40
   125cc:	fe40                	.2byte	0xfe40
   125ce:	fe40                	.2byte	0xfe40
   125d0:	fef1                	.2byte	0xfef1
   125d2:	ffff                	.2byte	0xffff
   125d4:	ffff                	.2byte	0xffff
   125d6:	ffff                	.2byte	0xffff
   125d8:	9496                	.2byte	0x9496
   125da:	9496                	.2byte	0x9496
   125dc:	9496                	.2byte	0x9496
   125de:	9496                	.2byte	0x9496
   125e0:	9496                	.2byte	0x9496
   125e2:	298f298f          	.4byte	0x298f298f
   125e6:	4250298f          	.4byte	0x4250298f
   125ea:	d6bc                	.2byte	0xd6bc
   125ec:	c61a                	.2byte	0xc61a
   125ee:	c61a                	.2byte	0xc61a
   125f0:	c61a                	.2byte	0xc61a
   125f2:	94b6                	.2byte	0x94b6
   125f4:	298f298f          	.4byte	0x298f298f
   125f8:	420e298f          	.4byte	0x420e298f
   125fc:	b469                	.2byte	0xb469
   125fe:	f5e2                	.2byte	0xf5e2
   12600:	fe21                	.2byte	0xfe21
   12602:	6acdd527          	.4byte	0x6acdd527
   12606:	298f298f          	.4byte	0x298f298f
   1260a:	298f298f          	.4byte	0x298f298f
   1260e:	298f298f          	.4byte	0x298f298f
   12612:	298f298f          	.4byte	0x298f298f
   12616:	298f298f          	.4byte	0x298f298f
   1261a:	298f298f          	.4byte	0x298f298f
   1261e:	298f298f          	.4byte	0x298f298f
   12622:	298f298f          	.4byte	0x298f298f
   12626:	298f298f          	.4byte	0x298f298f
   1262a:	4250                	.2byte	0x4250
   1262c:	bdfa                	.2byte	0xbdfa
   1262e:	ffff                	.2byte	0xffff
   12630:	ffff                	.2byte	0xffff
   12632:	ffff                	.2byte	0xffff
   12634:	ffff                	.2byte	0xffff
   12636:	ffff                	.2byte	0xffff
   12638:	ffff                	.2byte	0xffff
   1263a:	ffff                	.2byte	0xffff
   1263c:	ffff                	.2byte	0xffff
   1263e:	ffff                	.2byte	0xffff
   12640:	ffff                	.2byte	0xffff
   12642:	ffff                	.2byte	0xffff
   12644:	ffff                	.2byte	0xffff
   12646:	ffff                	.2byte	0xffff
   12648:	ffff                	.2byte	0xffff
   1264a:	ffbc                	.2byte	0xffbc
   1264c:	fead                	.2byte	0xfead
   1264e:	fe40                	.2byte	0xfe40
   12650:	fe40                	.2byte	0xfe40
   12652:	fe40                	.2byte	0xfe40
   12654:	fe40                	.2byte	0xfe40
   12656:	fe40                	.2byte	0xfe40
   12658:	fe40                	.2byte	0xfe40
   1265a:	fe40                	.2byte	0xfe40
   1265c:	fe40                	.2byte	0xfe40
   1265e:	fe40                	.2byte	0xfe40
   12660:	fe40                	.2byte	0xfe40
   12662:	fe40                	.2byte	0xfe40
   12664:	fe40                	.2byte	0xfe40
   12666:	fe40                	.2byte	0xfe40
   12668:	fe40                	.2byte	0xfe40
   1266a:	fe40                	.2byte	0xfe40
   1266c:	fe40                	.2byte	0xfe40
   1266e:	fe40                	.2byte	0xfe40
   12670:	fe40                	.2byte	0xfe40
   12672:	fe40                	.2byte	0xfe40
   12674:	fe40                	.2byte	0xfe40
   12676:	fe40                	.2byte	0xfe40
   12678:	fe40                	.2byte	0xfe40
   1267a:	fe40                	.2byte	0xfe40
   1267c:	fe40                	.2byte	0xfe40
   1267e:	fe40                	.2byte	0xfe40
   12680:	fe40                	.2byte	0xfe40
   12682:	fe40                	.2byte	0xfe40
   12684:	fe40                	.2byte	0xfe40
   12686:	fe40                	.2byte	0xfe40
   12688:	fe40                	.2byte	0xfe40
   1268a:	fe40                	.2byte	0xfe40
   1268c:	fe40                	.2byte	0xfe40
   1268e:	fe40                	.2byte	0xfe40
   12690:	fef1                	.2byte	0xfef1
   12692:	ffff                	.2byte	0xffff
   12694:	ffff                	.2byte	0xffff
   12696:	ffff                	.2byte	0xffff
   12698:	9496                	.2byte	0x9496
   1269a:	9496                	.2byte	0x9496
   1269c:	9496                	.2byte	0x9496
   1269e:	9496                	.2byte	0x9496
   126a0:	9496                	.2byte	0x9496
   126a2:	298f298f          	.4byte	0x298f298f
   126a6:	4a70298f          	.4byte	0x4a70298f
   126aa:	b598                	.2byte	0xb598
   126ac:	298f298f          	.4byte	0x298f298f
   126b0:	298f298f          	.4byte	0x298f298f
   126b4:	298f298f          	.4byte	0x298f298f
   126b8:	eda493ab          	.4byte	0xeda493ab
   126bc:	fe20                	.2byte	0xfe20
   126be:	e585                	.2byte	0xe585
   126c0:	8b6c                	.2byte	0x8b6c
   126c2:	29ae                	.2byte	0x29ae
   126c4:	298f298f          	.4byte	0x298f298f
   126c8:	298f298f          	.4byte	0x298f298f
   126cc:	298f298f          	.4byte	0x298f298f
   126d0:	298f298f          	.4byte	0x298f298f
   126d4:	298f298f          	.4byte	0x298f298f
   126d8:	298f298f          	.4byte	0x298f298f
   126dc:	298f298f          	.4byte	0x298f298f
   126e0:	298f298f          	.4byte	0x298f298f
   126e4:	298f298f          	.4byte	0x298f298f
   126e8:	298f298f          	.4byte	0x298f298f
   126ec:	8c7529af          	.4byte	0x8c7529af
   126f0:	f77e                	.2byte	0xf77e
   126f2:	ffff                	.2byte	0xffff
   126f4:	ffff                	.2byte	0xffff
   126f6:	ffff                	.2byte	0xffff
   126f8:	ffff                	.2byte	0xffff
   126fa:	ffff                	.2byte	0xffff
   126fc:	ffff                	.2byte	0xffff
   126fe:	ffff                	.2byte	0xffff
   12700:	ffff                	.2byte	0xffff
   12702:	ffff                	.2byte	0xffff
   12704:	ffff                	.2byte	0xffff
   12706:	ffff                	.2byte	0xffff
   12708:	ffff                	.2byte	0xffff
   1270a:	ffff                	.2byte	0xffff
   1270c:	ffff                	.2byte	0xffff
   1270e:	ff35                	.2byte	0xff35
   12710:	fe44                	.2byte	0xfe44
   12712:	fe40                	.2byte	0xfe40
   12714:	fe40                	.2byte	0xfe40
   12716:	fe40                	.2byte	0xfe40
   12718:	fe40                	.2byte	0xfe40
   1271a:	fe40                	.2byte	0xfe40
   1271c:	fe40                	.2byte	0xfe40
   1271e:	fe40                	.2byte	0xfe40
   12720:	fe40                	.2byte	0xfe40
   12722:	fe40                	.2byte	0xfe40
   12724:	fe40                	.2byte	0xfe40
   12726:	fe40                	.2byte	0xfe40
   12728:	fe40                	.2byte	0xfe40
   1272a:	fe40                	.2byte	0xfe40
   1272c:	fe40                	.2byte	0xfe40
   1272e:	fe40                	.2byte	0xfe40
   12730:	fe40                	.2byte	0xfe40
   12732:	fe40                	.2byte	0xfe40
   12734:	fe40                	.2byte	0xfe40
   12736:	fe40                	.2byte	0xfe40
   12738:	fe40                	.2byte	0xfe40
   1273a:	fe40                	.2byte	0xfe40
   1273c:	fe40                	.2byte	0xfe40
   1273e:	fe40                	.2byte	0xfe40
   12740:	fe40                	.2byte	0xfe40
   12742:	fe40                	.2byte	0xfe40
   12744:	fe40                	.2byte	0xfe40
   12746:	fe40                	.2byte	0xfe40
   12748:	fe40                	.2byte	0xfe40
   1274a:	fe40                	.2byte	0xfe40
   1274c:	fe40                	.2byte	0xfe40
   1274e:	fe40                	.2byte	0xfe40
   12750:	fef1                	.2byte	0xfef1
   12752:	ffff                	.2byte	0xffff
   12754:	ffff                	.2byte	0xffff
   12756:	ffff                	.2byte	0xffff
   12758:	9496                	.2byte	0x9496
   1275a:	9496                	.2byte	0x9496
   1275c:	9496                	.2byte	0x9496
   1275e:	9496                	.2byte	0x9496
   12760:	9496                	.2byte	0x9496
   12762:	298f298f          	.4byte	0x298f298f
   12766:	4a70298f          	.4byte	0x4a70298f
   1276a:	b598                	.2byte	0xb598
   1276c:	298f298f          	.4byte	0x298f298f
   12770:	298f298f          	.4byte	0x298f298f
   12774:	41ee298f          	.4byte	0x41ee298f
   12778:	f5e2                	.2byte	0xf5e2
   1277a:	fe02                	.2byte	0xfe02
   1277c:	a42a                	.2byte	0xa42a
   1277e:	39ee                	.2byte	0x39ee
   12780:	298f298f          	.4byte	0x298f298f
   12784:	298f298f          	.4byte	0x298f298f
   12788:	298f298f          	.4byte	0x298f298f
   1278c:	298f298f          	.4byte	0x298f298f
   12790:	298f298f          	.4byte	0x298f298f
   12794:	298f298f          	.4byte	0x298f298f
   12798:	298f298f          	.4byte	0x298f298f
   1279c:	298f298f          	.4byte	0x298f298f
   127a0:	298f298f          	.4byte	0x298f298f
   127a4:	298f298f          	.4byte	0x298f298f
   127a8:	298f298f          	.4byte	0x298f298f
   127ac:	298f298f          	.4byte	0x298f298f
   127b0:	5b12                	.2byte	0x5b12
   127b2:	d69c                	.2byte	0xd69c
   127b4:	ffff                	.2byte	0xffff
   127b6:	ffff                	.2byte	0xffff
   127b8:	ffff                	.2byte	0xffff
   127ba:	ffff                	.2byte	0xffff
   127bc:	ffff                	.2byte	0xffff
   127be:	ffff                	.2byte	0xffff
   127c0:	ffff                	.2byte	0xffff
   127c2:	ffff                	.2byte	0xffff
   127c4:	ffff                	.2byte	0xffff
   127c6:	ffff                	.2byte	0xffff
   127c8:	ffff                	.2byte	0xffff
   127ca:	ffff                	.2byte	0xffff
   127cc:	ffff                	.2byte	0xffff
   127ce:	ffff                	.2byte	0xffff
   127d0:	ff9a                	.2byte	0xff9a
   127d2:	fe40fe8b          	.4byte	0xfe40fe8b
   127d6:	fe40                	.2byte	0xfe40
   127d8:	fe40                	.2byte	0xfe40
   127da:	fe40                	.2byte	0xfe40
   127dc:	fe40                	.2byte	0xfe40
   127de:	fe40                	.2byte	0xfe40
   127e0:	fe40                	.2byte	0xfe40
   127e2:	fe40                	.2byte	0xfe40
   127e4:	fe40                	.2byte	0xfe40
   127e6:	fe40                	.2byte	0xfe40
   127e8:	fe40                	.2byte	0xfe40
   127ea:	fe40                	.2byte	0xfe40
   127ec:	fe40                	.2byte	0xfe40
   127ee:	fe40                	.2byte	0xfe40
   127f0:	fe40                	.2byte	0xfe40
   127f2:	fe40                	.2byte	0xfe40
   127f4:	fe40                	.2byte	0xfe40
   127f6:	fe40                	.2byte	0xfe40
   127f8:	fe40                	.2byte	0xfe40
   127fa:	fe40                	.2byte	0xfe40
   127fc:	fe40                	.2byte	0xfe40
   127fe:	fe40                	.2byte	0xfe40
   12800:	fe40                	.2byte	0xfe40
   12802:	fe40                	.2byte	0xfe40
   12804:	fe40                	.2byte	0xfe40
   12806:	fe40                	.2byte	0xfe40
   12808:	fe40                	.2byte	0xfe40
   1280a:	fe40                	.2byte	0xfe40
   1280c:	fe40                	.2byte	0xfe40
   1280e:	fe40                	.2byte	0xfe40
   12810:	fef1                	.2byte	0xfef1
   12812:	ffff                	.2byte	0xffff
   12814:	ffff                	.2byte	0xffff
   12816:	ffff                	.2byte	0xffff
   12818:	9496                	.2byte	0x9496
   1281a:	9496                	.2byte	0x9496
   1281c:	9496                	.2byte	0x9496
   1281e:	9496                	.2byte	0x9496
   12820:	9496                	.2byte	0x9496
   12822:	298f298f          	.4byte	0x298f298f
   12826:	39f0298f          	.4byte	0x39f0298f
   1282a:	7bd4                	.2byte	0x7bd4
   1282c:	298f298f          	.4byte	0x298f298f
   12830:	298f298f          	.4byte	0x298f298f
   12834:	41ee298f          	.4byte	0x41ee298f
   12838:	fe21edc3          	.4byte	0xfe21edc3
   1283c:	c4c8                	.2byte	0xc4c8
   1283e:	524d                	.2byte	0x524d
   12840:	298f298f          	.4byte	0x298f298f
   12844:	298f298f          	.4byte	0x298f298f
   12848:	298f298f          	.4byte	0x298f298f
   1284c:	298f298f          	.4byte	0x298f298f
   12850:	298f298f          	.4byte	0x298f298f
   12854:	298f298f          	.4byte	0x298f298f
   12858:	298f298f          	.4byte	0x298f298f
   1285c:	298f298f          	.4byte	0x298f298f
   12860:	298f298f          	.4byte	0x298f298f
   12864:	298f298f          	.4byte	0x298f298f
   12868:	298f298f          	.4byte	0x298f298f
   1286c:	298f298f          	.4byte	0x298f298f
   12870:	31ef298f          	.4byte	0x31ef298f
   12874:	ad58                	.2byte	0xad58
   12876:	ffdf ffff ffff      	.byte	0xdf, 0xff, 0xff, 0xff, 0xff, 0xff
   1287c:	ffff                	.2byte	0xffff
   1287e:	ffff                	.2byte	0xffff
   12880:	ffff                	.2byte	0xffff
   12882:	ffff                	.2byte	0xffff
   12884:	ffff                	.2byte	0xffff
   12886:	ffff                	.2byte	0xffff
   12888:	ffff                	.2byte	0xffff
   1288a:	ffff                	.2byte	0xffff
   1288c:	ffff                	.2byte	0xffff
   1288e:	ffff                	.2byte	0xffff
   12890:	ffff                	.2byte	0xffff
   12892:	fffe                	.2byte	0xfffe
   12894:	fef2                	.2byte	0xfef2
   12896:	fe42                	.2byte	0xfe42
   12898:	fe40                	.2byte	0xfe40
   1289a:	fe40                	.2byte	0xfe40
   1289c:	fe40                	.2byte	0xfe40
   1289e:	fe40                	.2byte	0xfe40
   128a0:	fe40                	.2byte	0xfe40
   128a2:	fe40                	.2byte	0xfe40
   128a4:	fe40                	.2byte	0xfe40
   128a6:	fe40                	.2byte	0xfe40
   128a8:	fe40                	.2byte	0xfe40
   128aa:	fe40                	.2byte	0xfe40
   128ac:	fe40                	.2byte	0xfe40
   128ae:	fe40                	.2byte	0xfe40
   128b0:	fe40                	.2byte	0xfe40
   128b2:	fe40                	.2byte	0xfe40
   128b4:	fe40                	.2byte	0xfe40
   128b6:	fe40                	.2byte	0xfe40
   128b8:	fe40                	.2byte	0xfe40
   128ba:	fe40                	.2byte	0xfe40
   128bc:	fe40                	.2byte	0xfe40
   128be:	fe40                	.2byte	0xfe40
   128c0:	fe40                	.2byte	0xfe40
   128c2:	fe40                	.2byte	0xfe40
   128c4:	fe40                	.2byte	0xfe40
   128c6:	fe40                	.2byte	0xfe40
   128c8:	fe40                	.2byte	0xfe40
   128ca:	fe40                	.2byte	0xfe40
   128cc:	fe40                	.2byte	0xfe40
   128ce:	fe40                	.2byte	0xfe40
   128d0:	fef1                	.2byte	0xfef1
   128d2:	ffff                	.2byte	0xffff
   128d4:	ffff                	.2byte	0xffff
   128d6:	ffff                	.2byte	0xffff
   128d8:	9496                	.2byte	0x9496
   128da:	9496                	.2byte	0x9496
   128dc:	9496                	.2byte	0x9496
   128de:	9496                	.2byte	0x9496
   128e0:	9496                	.2byte	0x9496
   128e2:	298f298f          	.4byte	0x298f298f
   128e6:	29af298f          	.4byte	0x29af298f
   128ea:	52d1                	.2byte	0x52d1
   128ec:	52d1                	.2byte	0x52d1
   128ee:	52d1                	.2byte	0x52d1
   128f0:	52d1                	.2byte	0x52d1
   128f2:	4250                	.2byte	0x4250
   128f4:	298f298f          	.4byte	0x298f298f
   128f8:	72ec                	.2byte	0x72ec
   128fa:	d546                	.2byte	0xd546
   128fc:	fe20                	.2byte	0xfe20
   128fe:	ac2af5e3          	bgeu	s5,sp,123c8 <riscv_96x64_map+0x2370>
   12902:	41ee                	.2byte	0x41ee
   12904:	298f298f          	.4byte	0x298f298f
   12908:	298f298f          	.4byte	0x298f298f
   1290c:	298f298f          	.4byte	0x298f298f
   12910:	298f298f          	.4byte	0x298f298f
   12914:	298f298f          	.4byte	0x298f298f
   12918:	298f298f          	.4byte	0x298f298f
   1291c:	298f298f          	.4byte	0x298f298f
   12920:	298f298f          	.4byte	0x298f298f
   12924:	298f298f          	.4byte	0x298f298f
   12928:	298f298f          	.4byte	0x298f298f
   1292c:	298f298f          	.4byte	0x298f298f
   12930:	298f298f          	.4byte	0x298f298f
   12934:	73b3298f          	.4byte	0x73b3298f
   12938:	e71d                	.2byte	0xe71d
   1293a:	ffff                	.2byte	0xffff
   1293c:	ffff                	.2byte	0xffff
   1293e:	ffff                	.2byte	0xffff
   12940:	ffff                	.2byte	0xffff
   12942:	ffff                	.2byte	0xffff
   12944:	ffff                	.2byte	0xffff
   12946:	ffff                	.2byte	0xffff
   12948:	ffff                	.2byte	0xffff
   1294a:	ffff                	.2byte	0xffff
   1294c:	ffff                	.2byte	0xffff
   1294e:	ffff                	.2byte	0xffff
   12950:	ffff                	.2byte	0xffff
   12952:	ffff                	.2byte	0xffff
   12954:	ffff                	.2byte	0xffff
   12956:	ff78                	.2byte	0xff78
   12958:	fe68                	.2byte	0xfe68
   1295a:	fe40                	.2byte	0xfe40
   1295c:	fe40                	.2byte	0xfe40
   1295e:	fe40                	.2byte	0xfe40
   12960:	fe40                	.2byte	0xfe40
   12962:	fe40                	.2byte	0xfe40
   12964:	fe40                	.2byte	0xfe40
   12966:	fe40                	.2byte	0xfe40
   12968:	fe40                	.2byte	0xfe40
   1296a:	fe40                	.2byte	0xfe40
   1296c:	fe40                	.2byte	0xfe40
   1296e:	fe40                	.2byte	0xfe40
   12970:	fe40                	.2byte	0xfe40
   12972:	fe40                	.2byte	0xfe40
   12974:	fe40                	.2byte	0xfe40
   12976:	fe40                	.2byte	0xfe40
   12978:	fe40                	.2byte	0xfe40
   1297a:	fe40                	.2byte	0xfe40
   1297c:	fe40                	.2byte	0xfe40
   1297e:	fe40                	.2byte	0xfe40
   12980:	fe40                	.2byte	0xfe40
   12982:	fe40                	.2byte	0xfe40
   12984:	fe40                	.2byte	0xfe40
   12986:	fe40                	.2byte	0xfe40
   12988:	fe40                	.2byte	0xfe40
   1298a:	fe40                	.2byte	0xfe40
   1298c:	fe40                	.2byte	0xfe40
   1298e:	fe40                	.2byte	0xfe40
   12990:	fef1                	.2byte	0xfef1
   12992:	ffff                	.2byte	0xffff
   12994:	ffff                	.2byte	0xffff
   12996:	ffff                	.2byte	0xffff
   12998:	9496                	.2byte	0x9496
   1299a:	9496                	.2byte	0x9496
   1299c:	9496                	.2byte	0x9496
   1299e:	9496                	.2byte	0x9496
   129a0:	9496                	.2byte	0x9496
   129a2:	298f298f          	.4byte	0x298f298f
   129a6:	4250298f          	.4byte	0x4250298f
   129aa:	d69c                	.2byte	0xd69c
   129ac:	bdfa                	.2byte	0xbdfa
   129ae:	defd                	.2byte	0xdefd
   129b0:	c61a                	.2byte	0xc61a
   129b2:	bdd9                	.2byte	0xbdd9
   129b4:	298f298f          	.4byte	0x298f298f
   129b8:	31ae298f          	.4byte	0x31ae298f
   129bc:	eda493ab          	.4byte	0xeda493ab
   129c0:	fe20                	.2byte	0xfe20
   129c2:	e585                	.2byte	0xe585
   129c4:	31ae8b8b          	.4byte	0x31ae8b8b
   129c8:	298f298f          	.4byte	0x298f298f
   129cc:	298f298f          	.4byte	0x298f298f
   129d0:	298f298f          	.4byte	0x298f298f
   129d4:	298f298f          	.4byte	0x298f298f
   129d8:	298f298f          	.4byte	0x298f298f
   129dc:	298f298f          	.4byte	0x298f298f
   129e0:	298f298f          	.4byte	0x298f298f
   129e4:	298f298f          	.4byte	0x298f298f
   129e8:	298f298f          	.4byte	0x298f298f
   129ec:	298f298f          	.4byte	0x298f298f
   129f0:	298f298f          	.4byte	0x298f298f
   129f4:	298f298f          	.4byte	0x298f298f
   129f8:	4250                	.2byte	0x4250
   129fa:	c61a                	.2byte	0xc61a
   129fc:	ffff                	.2byte	0xffff
   129fe:	ffff                	.2byte	0xffff
   12a00:	ffff                	.2byte	0xffff
   12a02:	ffff                	.2byte	0xffff
   12a04:	ffff                	.2byte	0xffff
   12a06:	ffff                	.2byte	0xffff
   12a08:	ffff                	.2byte	0xffff
   12a0a:	ffff                	.2byte	0xffff
   12a0c:	ffff                	.2byte	0xffff
   12a0e:	ffff                	.2byte	0xffff
   12a10:	ffff                	.2byte	0xffff
   12a12:	ffff                	.2byte	0xffff
   12a14:	ffff                	.2byte	0xffff
   12a16:	ffff                	.2byte	0xffff
   12a18:	ffdd                	.2byte	0xffdd
   12a1a:	fe41fecf          	.4byte	0xfe41fecf
   12a1e:	fe40                	.2byte	0xfe40
   12a20:	fe40                	.2byte	0xfe40
   12a22:	fe40                	.2byte	0xfe40
   12a24:	fe40                	.2byte	0xfe40
   12a26:	fe40                	.2byte	0xfe40
   12a28:	fe40                	.2byte	0xfe40
   12a2a:	fe40                	.2byte	0xfe40
   12a2c:	fe40                	.2byte	0xfe40
   12a2e:	fe40                	.2byte	0xfe40
   12a30:	fe40                	.2byte	0xfe40
   12a32:	fe40                	.2byte	0xfe40
   12a34:	fe40                	.2byte	0xfe40
   12a36:	fe40                	.2byte	0xfe40
   12a38:	fe40                	.2byte	0xfe40
   12a3a:	fe40                	.2byte	0xfe40
   12a3c:	fe40                	.2byte	0xfe40
   12a3e:	fe40                	.2byte	0xfe40
   12a40:	fe40                	.2byte	0xfe40
   12a42:	fe40                	.2byte	0xfe40
   12a44:	fe40                	.2byte	0xfe40
   12a46:	fe40                	.2byte	0xfe40
   12a48:	fe40                	.2byte	0xfe40
   12a4a:	fe40                	.2byte	0xfe40
   12a4c:	fe40                	.2byte	0xfe40
   12a4e:	fe40                	.2byte	0xfe40
   12a50:	fef1                	.2byte	0xfef1
   12a52:	ffff                	.2byte	0xffff
   12a54:	ffff                	.2byte	0xffff
   12a56:	ffff                	.2byte	0xffff
   12a58:	9496                	.2byte	0x9496
   12a5a:	9496                	.2byte	0x9496
   12a5c:	9496                	.2byte	0x9496
   12a5e:	9496                	.2byte	0x9496
   12a60:	9496                	.2byte	0x9496
   12a62:	298f298f          	.4byte	0x298f298f
   12a66:	4a70298f          	.4byte	0x4a70298f
   12a6a:	b598                	.2byte	0xb598
   12a6c:	31f0                	.2byte	0x31f0
   12a6e:	b5b9                	.2byte	0xb5b9
   12a70:	4a70                	.2byte	0x4a70
   12a72:	b599                	.2byte	0xb599
   12a74:	298f298f          	.4byte	0x298f298f
   12a78:	298f298f          	.4byte	0x298f298f
   12a7c:	420e298f          	.4byte	0x420e298f
   12a80:	b469                	.2byte	0xb469
   12a82:	f5e2                	.2byte	0xf5e2
   12a84:	fe20                	.2byte	0xfe20
   12a86:	29aecce7          	.4byte	0x29aecce7
   12a8a:	298f298f          	.4byte	0x298f298f
   12a8e:	298f298f          	.4byte	0x298f298f
   12a92:	298f298f          	.4byte	0x298f298f
   12a96:	298f298f          	.4byte	0x298f298f
   12a9a:	298f298f          	.4byte	0x298f298f
   12a9e:	298f298f          	.4byte	0x298f298f
   12aa2:	298f298f          	.4byte	0x298f298f
   12aa6:	298f298f          	.4byte	0x298f298f
   12aaa:	298f298f          	.4byte	0x298f298f
   12aae:	298f298f          	.4byte	0x298f298f
   12ab2:	298f298f          	.4byte	0x298f298f
   12ab6:	298f298f          	.4byte	0x298f298f
   12aba:	949629af          	.4byte	0x949629af
   12abe:	f77e                	.2byte	0xf77e
   12ac0:	ffff                	.2byte	0xffff
   12ac2:	ffff                	.2byte	0xffff
   12ac4:	ffff                	.2byte	0xffff
   12ac6:	ffff                	.2byte	0xffff
   12ac8:	ffff                	.2byte	0xffff
   12aca:	ffff                	.2byte	0xffff
   12acc:	ffff                	.2byte	0xffff
   12ace:	ffff                	.2byte	0xffff
   12ad0:	ffff                	.2byte	0xffff
   12ad2:	ffff                	.2byte	0xffff
   12ad4:	ffff                	.2byte	0xffff
   12ad6:	ffff                	.2byte	0xffff
   12ad8:	ffff                	.2byte	0xffff
   12ada:	ffff                	.2byte	0xffff
   12adc:	ff36                	.2byte	0xff36
   12ade:	fe45                	.2byte	0xfe45
   12ae0:	fe40                	.2byte	0xfe40
   12ae2:	fe40                	.2byte	0xfe40
   12ae4:	fe40                	.2byte	0xfe40
   12ae6:	fe40                	.2byte	0xfe40
   12ae8:	fe40                	.2byte	0xfe40
   12aea:	fe40                	.2byte	0xfe40
   12aec:	fe40                	.2byte	0xfe40
   12aee:	fe40                	.2byte	0xfe40
   12af0:	fe40                	.2byte	0xfe40
   12af2:	fe40                	.2byte	0xfe40
   12af4:	fe40                	.2byte	0xfe40
   12af6:	fe40                	.2byte	0xfe40
   12af8:	fe40                	.2byte	0xfe40
   12afa:	fe40                	.2byte	0xfe40
   12afc:	fe40                	.2byte	0xfe40
   12afe:	fe40                	.2byte	0xfe40
   12b00:	fe40                	.2byte	0xfe40
   12b02:	fe40                	.2byte	0xfe40
   12b04:	fe40                	.2byte	0xfe40
   12b06:	fe40                	.2byte	0xfe40
   12b08:	fe40                	.2byte	0xfe40
   12b0a:	fe40                	.2byte	0xfe40
   12b0c:	fe40                	.2byte	0xfe40
   12b0e:	fe40                	.2byte	0xfe40
   12b10:	fef1                	.2byte	0xfef1
   12b12:	ffff                	.2byte	0xffff
   12b14:	ffff                	.2byte	0xffff
   12b16:	ffff                	.2byte	0xffff
   12b18:	9496                	.2byte	0x9496
   12b1a:	9496                	.2byte	0x9496
   12b1c:	9496                	.2byte	0x9496
   12b1e:	9496                	.2byte	0x9496
   12b20:	9496                	.2byte	0x9496
   12b22:	298f298f          	.4byte	0x298f298f
   12b26:	4a70298f          	.4byte	0x4a70298f
   12b2a:	b598                	.2byte	0xb598
   12b2c:	31f0                	.2byte	0x31f0
   12b2e:	b5b9                	.2byte	0xb5b9
   12b30:	4a70                	.2byte	0x4a70
   12b32:	b599                	.2byte	0xb599
   12b34:	298f298f          	.4byte	0x298f298f
   12b38:	298f298f          	.4byte	0x298f298f
   12b3c:	298f298f          	.4byte	0x298f298f
   12b40:	628d298f          	.4byte	0x628d298f
   12b44:	cce8                	.2byte	0xcce8
   12b46:	eda4                	.2byte	0xeda4
   12b48:	31ce                	.2byte	0x31ce
   12b4a:	298f298f          	.4byte	0x298f298f
   12b4e:	298f298f          	.4byte	0x298f298f
   12b52:	298f298f          	.4byte	0x298f298f
   12b56:	298f298f          	.4byte	0x298f298f
   12b5a:	298f298f          	.4byte	0x298f298f
   12b5e:	298f298f          	.4byte	0x298f298f
   12b62:	298f298f          	.4byte	0x298f298f
   12b66:	298f298f          	.4byte	0x298f298f
   12b6a:	298f298f          	.4byte	0x298f298f
   12b6e:	298f298f          	.4byte	0x298f298f
   12b72:	298f298f          	.4byte	0x298f298f
   12b76:	298f298f          	.4byte	0x298f298f
   12b7a:	298f298f          	.4byte	0x298f298f
   12b7e:	5b12                	.2byte	0x5b12
   12b80:	d69c                	.2byte	0xd69c
   12b82:	ffff                	.2byte	0xffff
   12b84:	ffff                	.2byte	0xffff
   12b86:	ffff                	.2byte	0xffff
   12b88:	ffff                	.2byte	0xffff
   12b8a:	ffff                	.2byte	0xffff
   12b8c:	ffff                	.2byte	0xffff
   12b8e:	ffff                	.2byte	0xffff
   12b90:	ffff                	.2byte	0xffff
   12b92:	ffff                	.2byte	0xffff
   12b94:	ffff                	.2byte	0xffff
   12b96:	ffff                	.2byte	0xffff
   12b98:	ffff                	.2byte	0xffff
   12b9a:	ffff                	.2byte	0xffff
   12b9c:	ffff                	.2byte	0xffff
   12b9e:	feacffbb          	.4byte	0xfeacffbb
   12ba2:	fe40                	.2byte	0xfe40
   12ba4:	fe40                	.2byte	0xfe40
   12ba6:	fe40                	.2byte	0xfe40
   12ba8:	fe40                	.2byte	0xfe40
   12baa:	fe40                	.2byte	0xfe40
   12bac:	fe40                	.2byte	0xfe40
   12bae:	fe40                	.2byte	0xfe40
   12bb0:	fe40                	.2byte	0xfe40
   12bb2:	fe40                	.2byte	0xfe40
   12bb4:	fe40                	.2byte	0xfe40
   12bb6:	fe40                	.2byte	0xfe40
   12bb8:	fe40                	.2byte	0xfe40
   12bba:	fe40                	.2byte	0xfe40
   12bbc:	fe40                	.2byte	0xfe40
   12bbe:	fe40                	.2byte	0xfe40
   12bc0:	fe40                	.2byte	0xfe40
   12bc2:	fe40                	.2byte	0xfe40
   12bc4:	fe40                	.2byte	0xfe40
   12bc6:	fe40                	.2byte	0xfe40
   12bc8:	fe40                	.2byte	0xfe40
   12bca:	fe40                	.2byte	0xfe40
   12bcc:	fe40                	.2byte	0xfe40
   12bce:	fe40                	.2byte	0xfe40
   12bd0:	fef1                	.2byte	0xfef1
   12bd2:	ffff                	.2byte	0xffff
   12bd4:	ffff                	.2byte	0xffff
   12bd6:	ffff                	.2byte	0xffff
   12bd8:	9496                	.2byte	0x9496
   12bda:	9496                	.2byte	0x9496
   12bdc:	9496                	.2byte	0x9496
   12bde:	9496                	.2byte	0x9496
   12be0:	9496                	.2byte	0x9496
   12be2:	298f298f          	.4byte	0x298f298f
   12be6:	3a30298f          	.4byte	0x3a30298f
   12bea:	9496                	.2byte	0x9496
   12bec:	8c5531cf          	.4byte	0x8c5531cf
   12bf0:	3a10                	.2byte	0x3a10
   12bf2:	8c76                	.2byte	0x8c76
   12bf4:	298f298f          	.4byte	0x298f298f
   12bf8:	298f298f          	.4byte	0x298f298f
   12bfc:	298f298f          	.4byte	0x298f298f
   12c00:	298f298f          	.4byte	0x298f298f
   12c04:	62cd298f          	.4byte	0x62cd298f
   12c08:	29ae                	.2byte	0x29ae
   12c0a:	298f298f          	.4byte	0x298f298f
   12c0e:	298f298f          	.4byte	0x298f298f
   12c12:	298f298f          	.4byte	0x298f298f
   12c16:	298f298f          	.4byte	0x298f298f
   12c1a:	298f298f          	.4byte	0x298f298f
   12c1e:	298f298f          	.4byte	0x298f298f
   12c22:	298f298f          	.4byte	0x298f298f
   12c26:	298f298f          	.4byte	0x298f298f
   12c2a:	298f298f          	.4byte	0x298f298f
   12c2e:	298f298f          	.4byte	0x298f298f
   12c32:	298f298f          	.4byte	0x298f298f
   12c36:	298f298f          	.4byte	0x298f298f
   12c3a:	298f298f          	.4byte	0x298f298f
   12c3e:	31cf298f          	.4byte	0x31cf298f
   12c42:	ad58                	.2byte	0xad58
   12c44:	ffffffbf ffffffff 	.8byte	0xffffffffffffffbf
   12c4c:	ffff                	.2byte	0xffff
   12c4e:	ffff                	.2byte	0xffff
   12c50:	ffff                	.2byte	0xffff
   12c52:	ffff                	.2byte	0xffff
   12c54:	ffff                	.2byte	0xffff
   12c56:	ffff                	.2byte	0xffff
   12c58:	ffff                	.2byte	0xffff
   12c5a:	ffff                	.2byte	0xffff
   12c5c:	ffff                	.2byte	0xffff
   12c5e:	ffff                	.2byte	0xffff
   12c60:	fffe                	.2byte	0xfffe
   12c62:	fe43ff13          	andi	t5,t2,-28
   12c66:	fe40                	.2byte	0xfe40
   12c68:	fe40                	.2byte	0xfe40
   12c6a:	fe40                	.2byte	0xfe40
   12c6c:	fe40                	.2byte	0xfe40
   12c6e:	fe40                	.2byte	0xfe40
   12c70:	fe40                	.2byte	0xfe40
   12c72:	fe40                	.2byte	0xfe40
   12c74:	fe40                	.2byte	0xfe40
   12c76:	fe40                	.2byte	0xfe40
   12c78:	fe40                	.2byte	0xfe40
   12c7a:	fe40                	.2byte	0xfe40
   12c7c:	fe40                	.2byte	0xfe40
   12c7e:	fe40                	.2byte	0xfe40
   12c80:	fe40                	.2byte	0xfe40
   12c82:	fe40                	.2byte	0xfe40
   12c84:	fe40                	.2byte	0xfe40
   12c86:	fe40                	.2byte	0xfe40
   12c88:	fe40                	.2byte	0xfe40
   12c8a:	fe40                	.2byte	0xfe40
   12c8c:	fe40                	.2byte	0xfe40
   12c8e:	fe40                	.2byte	0xfe40
   12c90:	fef1                	.2byte	0xfef1
   12c92:	ffff                	.2byte	0xffff
   12c94:	ffff                	.2byte	0xffff
   12c96:	ffff                	.2byte	0xffff
   12c98:	9496                	.2byte	0x9496
   12c9a:	9496                	.2byte	0x9496
   12c9c:	9496                	.2byte	0x9496
   12c9e:	9496                	.2byte	0x9496
   12ca0:	9496                	.2byte	0x9496
   12ca2:	298f298f          	.4byte	0x298f298f
   12ca6:	298f298f          	.4byte	0x298f298f
   12caa:	298f298f          	.4byte	0x298f298f
   12cae:	298f298f          	.4byte	0x298f298f
   12cb2:	298f298f          	.4byte	0x298f298f
   12cb6:	298f298f          	.4byte	0x298f298f
   12cba:	298f298f          	.4byte	0x298f298f
   12cbe:	298f298f          	.4byte	0x298f298f
   12cc2:	298f298f          	.4byte	0x298f298f
   12cc6:	298f298f          	.4byte	0x298f298f
   12cca:	298f298f          	.4byte	0x298f298f
   12cce:	298f298f          	.4byte	0x298f298f
   12cd2:	298f298f          	.4byte	0x298f298f
   12cd6:	298f298f          	.4byte	0x298f298f
   12cda:	298f298f          	.4byte	0x298f298f
   12cde:	298f298f          	.4byte	0x298f298f
   12ce2:	298f298f          	.4byte	0x298f298f
   12ce6:	298f298f          	.4byte	0x298f298f
   12cea:	298f298f          	.4byte	0x298f298f
   12cee:	298f298f          	.4byte	0x298f298f
   12cf2:	298f298f          	.4byte	0x298f298f
   12cf6:	298f298f          	.4byte	0x298f298f
   12cfa:	298f298f          	.4byte	0x298f298f
   12cfe:	298f298f          	.4byte	0x298f298f
   12d02:	73d3298f          	.4byte	0x73d3298f
   12d06:	e71d                	.2byte	0xe71d
   12d08:	ffff                	.2byte	0xffff
   12d0a:	ffff                	.2byte	0xffff
   12d0c:	ffff                	.2byte	0xffff
   12d0e:	ffff                	.2byte	0xffff
   12d10:	ffff                	.2byte	0xffff
   12d12:	ffff                	.2byte	0xffff
   12d14:	ffff                	.2byte	0xffff
   12d16:	ffff                	.2byte	0xffff
   12d18:	ffff                	.2byte	0xffff
   12d1a:	ffff                	.2byte	0xffff
   12d1c:	ffff                	.2byte	0xffff
   12d1e:	ffff                	.2byte	0xffff
   12d20:	ffff                	.2byte	0xffff
   12d22:	ffff                	.2byte	0xffff
   12d24:	ff99                	.2byte	0xff99
   12d26:	fe89                	.2byte	0xfe89
   12d28:	fe40                	.2byte	0xfe40
   12d2a:	fe40                	.2byte	0xfe40
   12d2c:	fe40                	.2byte	0xfe40
   12d2e:	fe40                	.2byte	0xfe40
   12d30:	fe40                	.2byte	0xfe40
   12d32:	fe40                	.2byte	0xfe40
   12d34:	fe40                	.2byte	0xfe40
   12d36:	fe40                	.2byte	0xfe40
   12d38:	fe40                	.2byte	0xfe40
   12d3a:	fe40                	.2byte	0xfe40
   12d3c:	fe40                	.2byte	0xfe40
   12d3e:	fe40                	.2byte	0xfe40
   12d40:	fe40                	.2byte	0xfe40
   12d42:	fe40                	.2byte	0xfe40
   12d44:	fe40                	.2byte	0xfe40
   12d46:	fe40                	.2byte	0xfe40
   12d48:	fe40                	.2byte	0xfe40
   12d4a:	fe40                	.2byte	0xfe40
   12d4c:	fe40                	.2byte	0xfe40
   12d4e:	fe40                	.2byte	0xfe40
   12d50:	fef1                	.2byte	0xfef1
   12d52:	ffff                	.2byte	0xffff
   12d54:	ffff                	.2byte	0xffff
   12d56:	ffff                	.2byte	0xffff
   12d58:	9496                	.2byte	0x9496
   12d5a:	9496                	.2byte	0x9496
   12d5c:	9496                	.2byte	0x9496
   12d5e:	9496                	.2byte	0x9496
   12d60:	9496                	.2byte	0x9496
   12d62:	298f298f          	.4byte	0x298f298f
   12d66:	298f298f          	.4byte	0x298f298f
   12d6a:	298f298f          	.4byte	0x298f298f
   12d6e:	298f298f          	.4byte	0x298f298f
   12d72:	298f298f          	.4byte	0x298f298f
   12d76:	298f298f          	.4byte	0x298f298f
   12d7a:	298f298f          	.4byte	0x298f298f
   12d7e:	298f298f          	.4byte	0x298f298f
   12d82:	298f298f          	.4byte	0x298f298f
   12d86:	298f298f          	.4byte	0x298f298f
   12d8a:	298f298f          	.4byte	0x298f298f
   12d8e:	298f298f          	.4byte	0x298f298f
   12d92:	298f298f          	.4byte	0x298f298f
   12d96:	298f298f          	.4byte	0x298f298f
   12d9a:	298f298f          	.4byte	0x298f298f
   12d9e:	298f298f          	.4byte	0x298f298f
   12da2:	298f298f          	.4byte	0x298f298f
   12da6:	298f298f          	.4byte	0x298f298f
   12daa:	298f298f          	.4byte	0x298f298f
   12dae:	298f298f          	.4byte	0x298f298f
   12db2:	298f298f          	.4byte	0x298f298f
   12db6:	298f298f          	.4byte	0x298f298f
   12dba:	298f298f          	.4byte	0x298f298f
   12dbe:	298f298f          	.4byte	0x298f298f
   12dc2:	298f298f          	.4byte	0x298f298f
   12dc6:	4250                	.2byte	0x4250
   12dc8:	bdfa                	.2byte	0xbdfa
   12dca:	ffff                	.2byte	0xffff
   12dcc:	ffff                	.2byte	0xffff
   12dce:	ffff                	.2byte	0xffff
   12dd0:	ffff                	.2byte	0xffff
   12dd2:	ffff                	.2byte	0xffff
   12dd4:	ffff                	.2byte	0xffff
   12dd6:	ffff                	.2byte	0xffff
   12dd8:	ffff                	.2byte	0xffff
   12dda:	ffff                	.2byte	0xffff
   12ddc:	ffff                	.2byte	0xffff
   12dde:	ffff                	.2byte	0xffff
   12de0:	ffff                	.2byte	0xffff
   12de2:	ffff                	.2byte	0xffff
   12de4:	ffff                	.2byte	0xffff
   12de6:	ffdd                	.2byte	0xffdd
   12de8:	fef0                	.2byte	0xfef0
   12dea:	fe41                	.2byte	0xfe41
   12dec:	fe40                	.2byte	0xfe40
   12dee:	fe40                	.2byte	0xfe40
   12df0:	fe40                	.2byte	0xfe40
   12df2:	fe40                	.2byte	0xfe40
   12df4:	fe40                	.2byte	0xfe40
   12df6:	fe40                	.2byte	0xfe40
   12df8:	fe40                	.2byte	0xfe40
   12dfa:	fe40                	.2byte	0xfe40
   12dfc:	fe40                	.2byte	0xfe40
   12dfe:	fe40                	.2byte	0xfe40
   12e00:	fe40                	.2byte	0xfe40
   12e02:	fe40                	.2byte	0xfe40
   12e04:	fe40                	.2byte	0xfe40
   12e06:	fe40                	.2byte	0xfe40
   12e08:	fe40                	.2byte	0xfe40
   12e0a:	fe40                	.2byte	0xfe40
   12e0c:	fe40                	.2byte	0xfe40
   12e0e:	fe40                	.2byte	0xfe40
   12e10:	fef1                	.2byte	0xfef1
   12e12:	ffff                	.2byte	0xffff
   12e14:	ffff                	.2byte	0xffff
   12e16:	ffff                	.2byte	0xffff
   12e18:	9496                	.2byte	0x9496
   12e1a:	9496                	.2byte	0x9496
   12e1c:	9496                	.2byte	0x9496
   12e1e:	9496                	.2byte	0x9496
   12e20:	9496                	.2byte	0x9496
   12e22:	298f298f          	.4byte	0x298f298f
   12e26:	298f298f          	.4byte	0x298f298f
   12e2a:	298f298f          	.4byte	0x298f298f
   12e2e:	298f298f          	.4byte	0x298f298f
   12e32:	298f298f          	.4byte	0x298f298f
   12e36:	298f298f          	.4byte	0x298f298f
   12e3a:	298f298f          	.4byte	0x298f298f
   12e3e:	298f298f          	.4byte	0x298f298f
   12e42:	298f298f          	.4byte	0x298f298f
   12e46:	298f298f          	.4byte	0x298f298f
   12e4a:	298f298f          	.4byte	0x298f298f
   12e4e:	298f298f          	.4byte	0x298f298f
   12e52:	298f298f          	.4byte	0x298f298f
   12e56:	298f298f          	.4byte	0x298f298f
   12e5a:	298f298f          	.4byte	0x298f298f
   12e5e:	298f298f          	.4byte	0x298f298f
   12e62:	298f298f          	.4byte	0x298f298f
   12e66:	298f298f          	.4byte	0x298f298f
   12e6a:	298f298f          	.4byte	0x298f298f
   12e6e:	298f298f          	.4byte	0x298f298f
   12e72:	298f298f          	.4byte	0x298f298f
   12e76:	298f298f          	.4byte	0x298f298f
   12e7a:	298f298f          	.4byte	0x298f298f
   12e7e:	298f298f          	.4byte	0x298f298f
   12e82:	298f298f          	.4byte	0x298f298f
   12e86:	29af298f          	.4byte	0x29af298f
   12e8a:	8c75                	.2byte	0x8c75
   12e8c:	f77e                	.2byte	0xf77e
   12e8e:	ffff                	.2byte	0xffff
   12e90:	ffff                	.2byte	0xffff
   12e92:	ffff                	.2byte	0xffff
   12e94:	ffff                	.2byte	0xffff
   12e96:	ffff                	.2byte	0xffff
   12e98:	ffff                	.2byte	0xffff
   12e9a:	ffff                	.2byte	0xffff
   12e9c:	ffff                	.2byte	0xffff
   12e9e:	ffff                	.2byte	0xffff
   12ea0:	ffff                	.2byte	0xffff
   12ea2:	ffff                	.2byte	0xffff
   12ea4:	ffff                	.2byte	0xffff
   12ea6:	ffff                	.2byte	0xffff
   12ea8:	ffff                	.2byte	0xffff
   12eaa:	fe66ff57          	.4byte	0xfe66ff57
   12eae:	fe40                	.2byte	0xfe40
   12eb0:	fe40                	.2byte	0xfe40
   12eb2:	fe40                	.2byte	0xfe40
   12eb4:	fe40                	.2byte	0xfe40
   12eb6:	fe40                	.2byte	0xfe40
   12eb8:	fe40                	.2byte	0xfe40
   12eba:	fe40                	.2byte	0xfe40
   12ebc:	fe40                	.2byte	0xfe40
   12ebe:	fe40                	.2byte	0xfe40
   12ec0:	fe40                	.2byte	0xfe40
   12ec2:	fe40                	.2byte	0xfe40
   12ec4:	fe40                	.2byte	0xfe40
   12ec6:	fe40                	.2byte	0xfe40
   12ec8:	fe40                	.2byte	0xfe40
   12eca:	fe40                	.2byte	0xfe40
   12ecc:	fe40                	.2byte	0xfe40
   12ece:	fe40                	.2byte	0xfe40
   12ed0:	fef1                	.2byte	0xfef1
   12ed2:	ffff                	.2byte	0xffff
   12ed4:	ffff                	.2byte	0xffff
   12ed6:	ffff                	.2byte	0xffff
   12ed8:	9496                	.2byte	0x9496
   12eda:	9496                	.2byte	0x9496
   12edc:	9496                	.2byte	0x9496
   12ede:	9496                	.2byte	0x9496
   12ee0:	9496                	.2byte	0x9496
   12ee2:	298f298f          	.4byte	0x298f298f
   12ee6:	298f298f          	.4byte	0x298f298f
   12eea:	298f298f          	.4byte	0x298f298f
   12eee:	298f298f          	.4byte	0x298f298f
   12ef2:	298f298f          	.4byte	0x298f298f
   12ef6:	298f298f          	.4byte	0x298f298f
   12efa:	298f298f          	.4byte	0x298f298f
   12efe:	298f298f          	.4byte	0x298f298f
   12f02:	298f298f          	.4byte	0x298f298f
   12f06:	298f298f          	.4byte	0x298f298f
   12f0a:	298f298f          	.4byte	0x298f298f
   12f0e:	298f298f          	.4byte	0x298f298f
   12f12:	298f298f          	.4byte	0x298f298f
   12f16:	298f298f          	.4byte	0x298f298f
   12f1a:	298f298f          	.4byte	0x298f298f
   12f1e:	298f298f          	.4byte	0x298f298f
   12f22:	298f298f          	.4byte	0x298f298f
   12f26:	298f298f          	.4byte	0x298f298f
   12f2a:	298f298f          	.4byte	0x298f298f
   12f2e:	298f298f          	.4byte	0x298f298f
   12f32:	298f298f          	.4byte	0x298f298f
   12f36:	298f298f          	.4byte	0x298f298f
   12f3a:	298f298f          	.4byte	0x298f298f
   12f3e:	298f298f          	.4byte	0x298f298f
   12f42:	298f298f          	.4byte	0x298f298f
   12f46:	298f298f          	.4byte	0x298f298f
   12f4a:	5b12298f          	.4byte	0x5b12298f
   12f4e:	d69c                	.2byte	0xd69c
   12f50:	ffff                	.2byte	0xffff
   12f52:	ffff                	.2byte	0xffff
   12f54:	ffff                	.2byte	0xffff
   12f56:	ffff                	.2byte	0xffff
   12f58:	ffff                	.2byte	0xffff
   12f5a:	ffff                	.2byte	0xffff
   12f5c:	ffff                	.2byte	0xffff
   12f5e:	ffff                	.2byte	0xffff
   12f60:	ffff                	.2byte	0xffff
   12f62:	ffff                	.2byte	0xffff
   12f64:	ffff                	.2byte	0xffff
   12f66:	ffff                	.2byte	0xffff
   12f68:	ffff                	.2byte	0xffff
   12f6a:	ffff                	.2byte	0xffff
   12f6c:	ffbc                	.2byte	0xffbc
   12f6e:	feae                	.2byte	0xfeae
   12f70:	fe40                	.2byte	0xfe40
   12f72:	fe40                	.2byte	0xfe40
   12f74:	fe40                	.2byte	0xfe40
   12f76:	fe40                	.2byte	0xfe40
   12f78:	fe40                	.2byte	0xfe40
   12f7a:	fe40                	.2byte	0xfe40
   12f7c:	fe40                	.2byte	0xfe40
   12f7e:	fe40                	.2byte	0xfe40
   12f80:	fe40                	.2byte	0xfe40
   12f82:	fe40                	.2byte	0xfe40
   12f84:	fe40                	.2byte	0xfe40
   12f86:	fe40                	.2byte	0xfe40
   12f88:	fe40                	.2byte	0xfe40
   12f8a:	fe40                	.2byte	0xfe40
   12f8c:	fe40                	.2byte	0xfe40
   12f8e:	fe40                	.2byte	0xfe40
   12f90:	fef1                	.2byte	0xfef1
   12f92:	ffff                	.2byte	0xffff
   12f94:	ffff                	.2byte	0xffff
   12f96:	ffff                	.2byte	0xffff
   12f98:	9496                	.2byte	0x9496
   12f9a:	9496                	.2byte	0x9496
   12f9c:	9496                	.2byte	0x9496
   12f9e:	9496                	.2byte	0x9496
   12fa0:	9496                	.2byte	0x9496
   12fa2:	9cf79cf7          	.4byte	0x9cf79cf7
   12fa6:	9cf79cf7          	.4byte	0x9cf79cf7
   12faa:	9cf79cf7          	.4byte	0x9cf79cf7
   12fae:	9cf79cf7          	.4byte	0x9cf79cf7
   12fb2:	9cf79cf7          	.4byte	0x9cf79cf7
   12fb6:	9cf79cf7          	.4byte	0x9cf79cf7
   12fba:	9cf79cf7          	.4byte	0x9cf79cf7
   12fbe:	9cf79cf7          	.4byte	0x9cf79cf7
   12fc2:	9cf79cf7          	.4byte	0x9cf79cf7
   12fc6:	9cf79cf7          	.4byte	0x9cf79cf7
   12fca:	9cf79cf7          	.4byte	0x9cf79cf7
   12fce:	9cf79cf7          	.4byte	0x9cf79cf7
   12fd2:	9cf79cf7          	.4byte	0x9cf79cf7
   12fd6:	9cf79cf7          	.4byte	0x9cf79cf7
   12fda:	9cf79cf7          	.4byte	0x9cf79cf7
   12fde:	9cf79cf7          	.4byte	0x9cf79cf7
   12fe2:	9cf79cf7          	.4byte	0x9cf79cf7
   12fe6:	9cf79cf7          	.4byte	0x9cf79cf7
   12fea:	9cf79cf7          	.4byte	0x9cf79cf7
   12fee:	9cf79cf7          	.4byte	0x9cf79cf7
   12ff2:	9cf79cf7          	.4byte	0x9cf79cf7
   12ff6:	9cf79cf7          	.4byte	0x9cf79cf7
   12ffa:	9cf79cf7          	.4byte	0x9cf79cf7
   12ffe:	9cf79cf7          	.4byte	0x9cf79cf7
   13002:	9cf79cf7          	.4byte	0x9cf79cf7
   13006:	9cf79cf7          	.4byte	0x9cf79cf7
   1300a:	9cf79cf7          	.4byte	0x9cf79cf7
   1300e:	e6fda517          	auipc	a0,0xe6fda
   13012:	ffff                	.2byte	0xffff
   13014:	ffff                	.2byte	0xffff
   13016:	ffff                	.2byte	0xffff
   13018:	ffff                	.2byte	0xffff
   1301a:	ffff                	.2byte	0xffff
   1301c:	ffff                	.2byte	0xffff
   1301e:	ffff                	.2byte	0xffff
   13020:	ffff                	.2byte	0xffff
   13022:	ffff                	.2byte	0xffff
   13024:	ffff                	.2byte	0xffff
   13026:	ffff                	.2byte	0xffff
   13028:	ffff                	.2byte	0xffff
   1302a:	ffff                	.2byte	0xffff
   1302c:	ffff                	.2byte	0xffff
   1302e:	ffff                	.2byte	0xffff
   13030:	ff56                	.2byte	0xff56
   13032:	fef2                	.2byte	0xfef2
   13034:	fef2                	.2byte	0xfef2
   13036:	fef2                	.2byte	0xfef2
   13038:	fef2                	.2byte	0xfef2
   1303a:	fef2                	.2byte	0xfef2
   1303c:	fef2                	.2byte	0xfef2
   1303e:	fef2                	.2byte	0xfef2
   13040:	fef2                	.2byte	0xfef2
   13042:	fef2                	.2byte	0xfef2
   13044:	fef2                	.2byte	0xfef2
   13046:	fef2                	.2byte	0xfef2
   13048:	fef2                	.2byte	0xfef2
   1304a:	fef2                	.2byte	0xfef2
   1304c:	fef2                	.2byte	0xfef2
   1304e:	fef2                	.2byte	0xfef2
   13050:	ffffff57          	.4byte	0xffffff57
   13054:	ffff                	.2byte	0xffff
   13056:	ffff                	.2byte	0xffff
   13058:	3130                	.2byte	0x3130
   1305a:	3332                	.2byte	0x3332
   1305c:	3534                	.2byte	0x3534
   1305e:	3736                	.2byte	0x3736
   13060:	3938                	.2byte	0x3938
   13062:	4241                	.2byte	0x4241
   13064:	46454443          	.4byte	0x46454443
	...

Déassemblage de la section .riscv.attributes :

00000000 <.riscv.attributes>:
   0:	1b41                	.2byte	0x1b41
   2:	0000                	.2byte	0x0
   4:	7200                	.2byte	0x7200
   6:	7369                	.2byte	0x7369
   8:	01007663          	bgeu	zero,a6,14 <set_12b_from_16b+0x4>
   c:	0011                	.2byte	0x11
   e:	0000                	.2byte	0x0
  10:	1004                	.2byte	0x1004
  12:	7205                	.2byte	0x7205
  14:	3376                	.2byte	0x3376
  16:	6932                	.2byte	0x6932
  18:	7032                	.2byte	0x7032
  1a:	0031                	.2byte	0x31

Déassemblage de la section .comment :

00000000 <.comment>:
   0:	3a434347          	.4byte	0x3a434347
   4:	2820                	.2byte	0x2820
   6:	6255                	.2byte	0x6255
   8:	6e75                	.2byte	0x6e75
   a:	7574                	.2byte	0x7574
   c:	3120                	.2byte	0x3120
   e:	2e32                	.2byte	0x2e32
  10:	2d302e33          	.4byte	0x2d302e33
  14:	7531                	.2byte	0x7531
  16:	7562                	.2byte	0x7562
  18:	746e                	.2byte	0x746e
  1a:	3175                	.2byte	0x3175
  1c:	327e                	.2byte	0x327e
  1e:	2e32                	.2byte	0x2e32
  20:	3430                	.2byte	0x3430
  22:	2029                	.2byte	0x2029
  24:	3231                	.2byte	0x3231
  26:	332e                	.2byte	0x332e
  28:	302e                	.2byte	0x302e
	...
